
Numpad.elf:     file format elf32-littlearm

Sections:
Idx Name          Size      VMA       LMA       File off  Algn
  0 .isr_vector   000000c0  08000000  08000000  00010000  2**0
                  CONTENTS, ALLOC, LOAD, READONLY, DATA
  1 .text         00003254  080000c0  080000c0  000100c0  2**2
                  CONTENTS, ALLOC, LOAD, READONLY, CODE
  2 .rodata       000000dc  08003314  08003314  00013314  2**2
                  CONTENTS, ALLOC, LOAD, READONLY, DATA
  3 .ARM.extab    00000000  080033f0  080033f0  00020114  2**0
                  CONTENTS
  4 .ARM          00000000  080033f0  080033f0  00020114  2**0
                  CONTENTS
  5 .preinit_array 00000000  080033f0  080033f0  00020114  2**0
                  CONTENTS, ALLOC, LOAD, DATA
  6 .init_array   00000004  080033f0  080033f0  000133f0  2**2
                  CONTENTS, ALLOC, LOAD, DATA
  7 .fini_array   00000004  080033f4  080033f4  000133f4  2**2
                  CONTENTS, ALLOC, LOAD, DATA
  8 .data         00000114  20000000  080033f8  00020000  2**2
                  CONTENTS, ALLOC, LOAD, DATA
  9 .bss          0000067c  20000114  0800350c  00020114  2**2
                  ALLOC
 10 ._user_heap_stack 00000600  20000790  0800350c  00020790  2**0
                  ALLOC
 11 .ARM.attributes 00000028  00000000  00000000  00020114  2**0
                  CONTENTS, READONLY
 12 .comment      0000007b  00000000  00000000  0002013c  2**0
                  CONTENTS, READONLY
 13 .debug_frame  0000006c  00000000  00000000  000201b8  2**2
                  CONTENTS, READONLY, DEBUGGING

Disassembly of section .text:

080000c0 <__do_global_dtors_aux>:
 80000c0:	b510      	push	{r4, lr}
 80000c2:	4c06      	ldr	r4, [pc, #24]	; (80000dc <__do_global_dtors_aux+0x1c>)
 80000c4:	7823      	ldrb	r3, [r4, #0]
 80000c6:	2b00      	cmp	r3, #0
 80000c8:	d107      	bne.n	80000da <__do_global_dtors_aux+0x1a>
 80000ca:	4b05      	ldr	r3, [pc, #20]	; (80000e0 <__do_global_dtors_aux+0x20>)
 80000cc:	2b00      	cmp	r3, #0
 80000ce:	d002      	beq.n	80000d6 <__do_global_dtors_aux+0x16>
 80000d0:	4804      	ldr	r0, [pc, #16]	; (80000e4 <__do_global_dtors_aux+0x24>)
 80000d2:	e000      	b.n	80000d6 <__do_global_dtors_aux+0x16>
 80000d4:	bf00      	nop
 80000d6:	2301      	movs	r3, #1
 80000d8:	7023      	strb	r3, [r4, #0]
 80000da:	bd10      	pop	{r4, pc}
 80000dc:	20000114 	.word	0x20000114
 80000e0:	00000000 	.word	0x00000000
 80000e4:	080032fc 	.word	0x080032fc

080000e8 <frame_dummy>:
 80000e8:	4b04      	ldr	r3, [pc, #16]	; (80000fc <frame_dummy+0x14>)
 80000ea:	b510      	push	{r4, lr}
 80000ec:	2b00      	cmp	r3, #0
 80000ee:	d003      	beq.n	80000f8 <frame_dummy+0x10>
 80000f0:	4903      	ldr	r1, [pc, #12]	; (8000100 <frame_dummy+0x18>)
 80000f2:	4804      	ldr	r0, [pc, #16]	; (8000104 <frame_dummy+0x1c>)
 80000f4:	e000      	b.n	80000f8 <frame_dummy+0x10>
 80000f6:	bf00      	nop
 80000f8:	bd10      	pop	{r4, pc}
 80000fa:	46c0      	nop			; (mov r8, r8)
 80000fc:	00000000 	.word	0x00000000
 8000100:	20000118 	.word	0x20000118
 8000104:	080032fc 	.word	0x080032fc

08000108 <__udivsi3>:
 8000108:	2200      	movs	r2, #0
 800010a:	0843      	lsrs	r3, r0, #1
 800010c:	428b      	cmp	r3, r1
 800010e:	d374      	bcc.n	80001fa <__udivsi3+0xf2>
 8000110:	0903      	lsrs	r3, r0, #4
 8000112:	428b      	cmp	r3, r1
 8000114:	d35f      	bcc.n	80001d6 <__udivsi3+0xce>
 8000116:	0a03      	lsrs	r3, r0, #8
 8000118:	428b      	cmp	r3, r1
 800011a:	d344      	bcc.n	80001a6 <__udivsi3+0x9e>
 800011c:	0b03      	lsrs	r3, r0, #12
 800011e:	428b      	cmp	r3, r1
 8000120:	d328      	bcc.n	8000174 <__udivsi3+0x6c>
 8000122:	0c03      	lsrs	r3, r0, #16
 8000124:	428b      	cmp	r3, r1
 8000126:	d30d      	bcc.n	8000144 <__udivsi3+0x3c>
 8000128:	22ff      	movs	r2, #255	; 0xff
 800012a:	0209      	lsls	r1, r1, #8
 800012c:	ba12      	rev	r2, r2
 800012e:	0c03      	lsrs	r3, r0, #16
 8000130:	428b      	cmp	r3, r1
 8000132:	d302      	bcc.n	800013a <__udivsi3+0x32>
 8000134:	1212      	asrs	r2, r2, #8
 8000136:	0209      	lsls	r1, r1, #8
 8000138:	d065      	beq.n	8000206 <__udivsi3+0xfe>
 800013a:	0b03      	lsrs	r3, r0, #12
 800013c:	428b      	cmp	r3, r1
 800013e:	d319      	bcc.n	8000174 <__udivsi3+0x6c>
 8000140:	e000      	b.n	8000144 <__udivsi3+0x3c>
 8000142:	0a09      	lsrs	r1, r1, #8
 8000144:	0bc3      	lsrs	r3, r0, #15
 8000146:	428b      	cmp	r3, r1
 8000148:	d301      	bcc.n	800014e <__udivsi3+0x46>
 800014a:	03cb      	lsls	r3, r1, #15
 800014c:	1ac0      	subs	r0, r0, r3
 800014e:	4152      	adcs	r2, r2
 8000150:	0b83      	lsrs	r3, r0, #14
 8000152:	428b      	cmp	r3, r1
 8000154:	d301      	bcc.n	800015a <__udivsi3+0x52>
 8000156:	038b      	lsls	r3, r1, #14
 8000158:	1ac0      	subs	r0, r0, r3
 800015a:	4152      	adcs	r2, r2
 800015c:	0b43      	lsrs	r3, r0, #13
 800015e:	428b      	cmp	r3, r1
 8000160:	d301      	bcc.n	8000166 <__udivsi3+0x5e>
 8000162:	034b      	lsls	r3, r1, #13
 8000164:	1ac0      	subs	r0, r0, r3
 8000166:	4152      	adcs	r2, r2
 8000168:	0b03      	lsrs	r3, r0, #12
 800016a:	428b      	cmp	r3, r1
 800016c:	d301      	bcc.n	8000172 <__udivsi3+0x6a>
 800016e:	030b      	lsls	r3, r1, #12
 8000170:	1ac0      	subs	r0, r0, r3
 8000172:	4152      	adcs	r2, r2
 8000174:	0ac3      	lsrs	r3, r0, #11
 8000176:	428b      	cmp	r3, r1
 8000178:	d301      	bcc.n	800017e <__udivsi3+0x76>
 800017a:	02cb      	lsls	r3, r1, #11
 800017c:	1ac0      	subs	r0, r0, r3
 800017e:	4152      	adcs	r2, r2
 8000180:	0a83      	lsrs	r3, r0, #10
 8000182:	428b      	cmp	r3, r1
 8000184:	d301      	bcc.n	800018a <__udivsi3+0x82>
 8000186:	028b      	lsls	r3, r1, #10
 8000188:	1ac0      	subs	r0, r0, r3
 800018a:	4152      	adcs	r2, r2
 800018c:	0a43      	lsrs	r3, r0, #9
 800018e:	428b      	cmp	r3, r1
 8000190:	d301      	bcc.n	8000196 <__udivsi3+0x8e>
 8000192:	024b      	lsls	r3, r1, #9
 8000194:	1ac0      	subs	r0, r0, r3
 8000196:	4152      	adcs	r2, r2
 8000198:	0a03      	lsrs	r3, r0, #8
 800019a:	428b      	cmp	r3, r1
 800019c:	d301      	bcc.n	80001a2 <__udivsi3+0x9a>
 800019e:	020b      	lsls	r3, r1, #8
 80001a0:	1ac0      	subs	r0, r0, r3
 80001a2:	4152      	adcs	r2, r2
 80001a4:	d2cd      	bcs.n	8000142 <__udivsi3+0x3a>
 80001a6:	09c3      	lsrs	r3, r0, #7
 80001a8:	428b      	cmp	r3, r1
 80001aa:	d301      	bcc.n	80001b0 <__udivsi3+0xa8>
 80001ac:	01cb      	lsls	r3, r1, #7
 80001ae:	1ac0      	subs	r0, r0, r3
 80001b0:	4152      	adcs	r2, r2
 80001b2:	0983      	lsrs	r3, r0, #6
 80001b4:	428b      	cmp	r3, r1
 80001b6:	d301      	bcc.n	80001bc <__udivsi3+0xb4>
 80001b8:	018b      	lsls	r3, r1, #6
 80001ba:	1ac0      	subs	r0, r0, r3
 80001bc:	4152      	adcs	r2, r2
 80001be:	0943      	lsrs	r3, r0, #5
 80001c0:	428b      	cmp	r3, r1
 80001c2:	d301      	bcc.n	80001c8 <__udivsi3+0xc0>
 80001c4:	014b      	lsls	r3, r1, #5
 80001c6:	1ac0      	subs	r0, r0, r3
 80001c8:	4152      	adcs	r2, r2
 80001ca:	0903      	lsrs	r3, r0, #4
 80001cc:	428b      	cmp	r3, r1
 80001ce:	d301      	bcc.n	80001d4 <__udivsi3+0xcc>
 80001d0:	010b      	lsls	r3, r1, #4
 80001d2:	1ac0      	subs	r0, r0, r3
 80001d4:	4152      	adcs	r2, r2
 80001d6:	08c3      	lsrs	r3, r0, #3
 80001d8:	428b      	cmp	r3, r1
 80001da:	d301      	bcc.n	80001e0 <__udivsi3+0xd8>
 80001dc:	00cb      	lsls	r3, r1, #3
 80001de:	1ac0      	subs	r0, r0, r3
 80001e0:	4152      	adcs	r2, r2
 80001e2:	0883      	lsrs	r3, r0, #2
 80001e4:	428b      	cmp	r3, r1
 80001e6:	d301      	bcc.n	80001ec <__udivsi3+0xe4>
 80001e8:	008b      	lsls	r3, r1, #2
 80001ea:	1ac0      	subs	r0, r0, r3
 80001ec:	4152      	adcs	r2, r2
 80001ee:	0843      	lsrs	r3, r0, #1
 80001f0:	428b      	cmp	r3, r1
 80001f2:	d301      	bcc.n	80001f8 <__udivsi3+0xf0>
 80001f4:	004b      	lsls	r3, r1, #1
 80001f6:	1ac0      	subs	r0, r0, r3
 80001f8:	4152      	adcs	r2, r2
 80001fa:	1a41      	subs	r1, r0, r1
 80001fc:	d200      	bcs.n	8000200 <__udivsi3+0xf8>
 80001fe:	4601      	mov	r1, r0
 8000200:	4152      	adcs	r2, r2
 8000202:	4610      	mov	r0, r2
 8000204:	4770      	bx	lr
 8000206:	e7ff      	b.n	8000208 <__udivsi3+0x100>
 8000208:	b501      	push	{r0, lr}
 800020a:	2000      	movs	r0, #0
 800020c:	f000 f806 	bl	800021c <__aeabi_idiv0>
 8000210:	bd02      	pop	{r1, pc}
 8000212:	46c0      	nop			; (mov r8, r8)

08000214 <__aeabi_uidivmod>:
 8000214:	2900      	cmp	r1, #0
 8000216:	d0f7      	beq.n	8000208 <__udivsi3+0x100>
 8000218:	e776      	b.n	8000108 <__udivsi3>
 800021a:	4770      	bx	lr

0800021c <__aeabi_idiv0>:
 800021c:	4770      	bx	lr
 800021e:	46c0      	nop			; (mov r8, r8)

08000220 <HAL_InitTick>:
 8000220:	b510      	push	{r4, lr}
 8000222:	0004      	movs	r4, r0
 8000224:	f001 ffbe 	bl	80021a4 <HAL_RCC_GetHCLKFreq>
 8000228:	21fa      	movs	r1, #250	; 0xfa
 800022a:	0089      	lsls	r1, r1, #2
 800022c:	f7ff ff6c 	bl	8000108 <__udivsi3>
 8000230:	f000 f85c 	bl	80002ec <HAL_SYSTICK_Config>
 8000234:	2001      	movs	r0, #1
 8000236:	2200      	movs	r2, #0
 8000238:	0021      	movs	r1, r4
 800023a:	4240      	negs	r0, r0
 800023c:	f000 f820 	bl	8000280 <HAL_NVIC_SetPriority>
 8000240:	2000      	movs	r0, #0
 8000242:	bd10      	pop	{r4, pc}

08000244 <HAL_Init>:
 8000244:	2110      	movs	r1, #16
 8000246:	4a06      	ldr	r2, [pc, #24]	; (8000260 <HAL_Init+0x1c>)
 8000248:	b510      	push	{r4, lr}
 800024a:	6813      	ldr	r3, [r2, #0]
 800024c:	2000      	movs	r0, #0
 800024e:	430b      	orrs	r3, r1
 8000250:	6013      	str	r3, [r2, #0]
 8000252:	f7ff ffe5 	bl	8000220 <HAL_InitTick>
 8000256:	f002 fcf7 	bl	8002c48 <HAL_MspInit>
 800025a:	2000      	movs	r0, #0
 800025c:	bd10      	pop	{r4, pc}
 800025e:	46c0      	nop			; (mov r8, r8)
 8000260:	40022000 	.word	0x40022000

08000264 <HAL_IncTick>:
 8000264:	4a02      	ldr	r2, [pc, #8]	; (8000270 <HAL_IncTick+0xc>)
 8000266:	6813      	ldr	r3, [r2, #0]
 8000268:	3301      	adds	r3, #1
 800026a:	6013      	str	r3, [r2, #0]
 800026c:	4770      	bx	lr
 800026e:	46c0      	nop			; (mov r8, r8)
 8000270:	20000148 	.word	0x20000148

08000274 <HAL_GetTick>:
 8000274:	4b01      	ldr	r3, [pc, #4]	; (800027c <HAL_GetTick+0x8>)
 8000276:	6818      	ldr	r0, [r3, #0]
 8000278:	4770      	bx	lr
 800027a:	46c0      	nop			; (mov r8, r8)
 800027c:	20000148 	.word	0x20000148

08000280 <HAL_NVIC_SetPriority>:
 8000280:	22ff      	movs	r2, #255	; 0xff
 8000282:	2303      	movs	r3, #3
 8000284:	b530      	push	{r4, r5, lr}
 8000286:	0014      	movs	r4, r2
 8000288:	b2c5      	uxtb	r5, r0
 800028a:	402b      	ands	r3, r5
 800028c:	00db      	lsls	r3, r3, #3
 800028e:	409c      	lsls	r4, r3
 8000290:	0189      	lsls	r1, r1, #6
 8000292:	400a      	ands	r2, r1
 8000294:	43e4      	mvns	r4, r4
 8000296:	409a      	lsls	r2, r3
 8000298:	2800      	cmp	r0, #0
 800029a:	db0b      	blt.n	80002b4 <HAL_NVIC_SetPriority+0x34>
 800029c:	4b0c      	ldr	r3, [pc, #48]	; (80002d0 <HAL_NVIC_SetPriority+0x50>)
 800029e:	0880      	lsrs	r0, r0, #2
 80002a0:	469c      	mov	ip, r3
 80002a2:	23c0      	movs	r3, #192	; 0xc0
 80002a4:	0080      	lsls	r0, r0, #2
 80002a6:	4460      	add	r0, ip
 80002a8:	009b      	lsls	r3, r3, #2
 80002aa:	58c1      	ldr	r1, [r0, r3]
 80002ac:	400c      	ands	r4, r1
 80002ae:	4322      	orrs	r2, r4
 80002b0:	50c2      	str	r2, [r0, r3]
 80002b2:	bd30      	pop	{r4, r5, pc}
 80002b4:	230f      	movs	r3, #15
 80002b6:	4907      	ldr	r1, [pc, #28]	; (80002d4 <HAL_NVIC_SetPriority+0x54>)
 80002b8:	402b      	ands	r3, r5
 80002ba:	468c      	mov	ip, r1
 80002bc:	3b08      	subs	r3, #8
 80002be:	089b      	lsrs	r3, r3, #2
 80002c0:	009b      	lsls	r3, r3, #2
 80002c2:	4463      	add	r3, ip
 80002c4:	69d9      	ldr	r1, [r3, #28]
 80002c6:	400c      	ands	r4, r1
 80002c8:	4322      	orrs	r2, r4
 80002ca:	61da      	str	r2, [r3, #28]
 80002cc:	e7f1      	b.n	80002b2 <HAL_NVIC_SetPriority+0x32>
 80002ce:	46c0      	nop			; (mov r8, r8)
 80002d0:	e000e100 	.word	0xe000e100
 80002d4:	e000ed00 	.word	0xe000ed00

080002d8 <HAL_NVIC_EnableIRQ>:
 80002d8:	231f      	movs	r3, #31
 80002da:	4018      	ands	r0, r3
 80002dc:	3b1e      	subs	r3, #30
 80002de:	4083      	lsls	r3, r0
 80002e0:	4a01      	ldr	r2, [pc, #4]	; (80002e8 <HAL_NVIC_EnableIRQ+0x10>)
 80002e2:	6013      	str	r3, [r2, #0]
 80002e4:	4770      	bx	lr
 80002e6:	46c0      	nop			; (mov r8, r8)
 80002e8:	e000e100 	.word	0xe000e100

080002ec <HAL_SYSTICK_Config>:
 80002ec:	4a0a      	ldr	r2, [pc, #40]	; (8000318 <HAL_SYSTICK_Config+0x2c>)
 80002ee:	1e43      	subs	r3, r0, #1
 80002f0:	2001      	movs	r0, #1
 80002f2:	4293      	cmp	r3, r2
 80002f4:	d80e      	bhi.n	8000314 <HAL_SYSTICK_Config+0x28>
 80002f6:	21c0      	movs	r1, #192	; 0xc0
 80002f8:	4a08      	ldr	r2, [pc, #32]	; (800031c <HAL_SYSTICK_Config+0x30>)
 80002fa:	4809      	ldr	r0, [pc, #36]	; (8000320 <HAL_SYSTICK_Config+0x34>)
 80002fc:	6053      	str	r3, [r2, #4]
 80002fe:	6a03      	ldr	r3, [r0, #32]
 8000300:	0609      	lsls	r1, r1, #24
 8000302:	021b      	lsls	r3, r3, #8
 8000304:	0a1b      	lsrs	r3, r3, #8
 8000306:	430b      	orrs	r3, r1
 8000308:	6203      	str	r3, [r0, #32]
 800030a:	2300      	movs	r3, #0
 800030c:	2000      	movs	r0, #0
 800030e:	6093      	str	r3, [r2, #8]
 8000310:	3307      	adds	r3, #7
 8000312:	6013      	str	r3, [r2, #0]
 8000314:	4770      	bx	lr
 8000316:	46c0      	nop			; (mov r8, r8)
 8000318:	00ffffff 	.word	0x00ffffff
 800031c:	e000e010 	.word	0xe000e010
 8000320:	e000ed00 	.word	0xe000ed00

08000324 <HAL_PCD_Init>:
 8000324:	b570      	push	{r4, r5, r6, lr}
 8000326:	1e04      	subs	r4, r0, #0
 8000328:	d100      	bne.n	800032c <HAL_PCD_Init+0x8>
 800032a:	e0fb      	b.n	8000524 <HAL_PCD_Init+0x200>
 800032c:	23ea      	movs	r3, #234	; 0xea
 800032e:	33ff      	adds	r3, #255	; 0xff
 8000330:	5cc3      	ldrb	r3, [r0, r3]
 8000332:	b2db      	uxtb	r3, r3
 8000334:	2b00      	cmp	r3, #0
 8000336:	d100      	bne.n	800033a <HAL_PCD_Init+0x16>
 8000338:	e0ee      	b.n	8000518 <HAL_PCD_Init+0x1f4>
 800033a:	23ea      	movs	r3, #234	; 0xea
 800033c:	2203      	movs	r2, #3
 800033e:	33ff      	adds	r3, #255	; 0xff
 8000340:	54e2      	strb	r2, [r4, r3]
 8000342:	6862      	ldr	r2, [r4, #4]
 8000344:	2a00      	cmp	r2, #0
 8000346:	d100      	bne.n	800034a <HAL_PCD_Init+0x26>
 8000348:	e0d1      	b.n	80004ee <HAL_PCD_Init+0x1ca>
 800034a:	2180      	movs	r1, #128	; 0x80
 800034c:	2300      	movs	r3, #0
 800034e:	202b      	movs	r0, #43	; 0x2b
 8000350:	0049      	lsls	r1, r1, #1
 8000352:	8521      	strh	r1, [r4, #40]	; 0x28
 8000354:	5423      	strb	r3, [r4, r0]
 8000356:	6363      	str	r3, [r4, #52]	; 0x34
 8000358:	63a3      	str	r3, [r4, #56]	; 0x38
 800035a:	63e3      	str	r3, [r4, #60]	; 0x3c
 800035c:	2a01      	cmp	r2, #1
 800035e:	d800      	bhi.n	8000362 <HAL_PCD_Init+0x3e>
 8000360:	e0f8      	b.n	8000554 <HAL_PCD_Init+0x230>
 8000362:	2502      	movs	r5, #2
 8000364:	3019      	adds	r0, #25
 8000366:	35ff      	adds	r5, #255	; 0xff
 8000368:	5225      	strh	r5, [r4, r0]
 800036a:	3003      	adds	r0, #3
 800036c:	5423      	strb	r3, [r4, r0]
 800036e:	6523      	str	r3, [r4, #80]	; 0x50
 8000370:	6563      	str	r3, [r4, #84]	; 0x54
 8000372:	65a3      	str	r3, [r4, #88]	; 0x58
 8000374:	2a02      	cmp	r2, #2
 8000376:	d100      	bne.n	800037a <HAL_PCD_Init+0x56>
 8000378:	e0d6      	b.n	8000528 <HAL_PCD_Init+0x204>
 800037a:	3019      	adds	r0, #25
 800037c:	3501      	adds	r5, #1
 800037e:	5225      	strh	r5, [r4, r0]
 8000380:	3003      	adds	r0, #3
 8000382:	5423      	strb	r3, [r4, r0]
 8000384:	66e3      	str	r3, [r4, #108]	; 0x6c
 8000386:	6723      	str	r3, [r4, #112]	; 0x70
 8000388:	6763      	str	r3, [r4, #116]	; 0x74
 800038a:	2a03      	cmp	r2, #3
 800038c:	d040      	beq.n	8000410 <HAL_PCD_Init+0xec>
 800038e:	2504      	movs	r5, #4
 8000390:	3019      	adds	r0, #25
 8000392:	35ff      	adds	r5, #255	; 0xff
 8000394:	5225      	strh	r5, [r4, r0]
 8000396:	3003      	adds	r0, #3
 8000398:	5423      	strb	r3, [r4, r0]
 800039a:	3009      	adds	r0, #9
 800039c:	5023      	str	r3, [r4, r0]
 800039e:	3004      	adds	r0, #4
 80003a0:	5023      	str	r3, [r4, r0]
 80003a2:	3004      	adds	r0, #4
 80003a4:	5023      	str	r3, [r4, r0]
 80003a6:	2a04      	cmp	r2, #4
 80003a8:	d032      	beq.n	8000410 <HAL_PCD_Init+0xec>
 80003aa:	3008      	adds	r0, #8
 80003ac:	3501      	adds	r5, #1
 80003ae:	5225      	strh	r5, [r4, r0]
 80003b0:	3003      	adds	r0, #3
 80003b2:	5423      	strb	r3, [r4, r0]
 80003b4:	3009      	adds	r0, #9
 80003b6:	5023      	str	r3, [r4, r0]
 80003b8:	3004      	adds	r0, #4
 80003ba:	5023      	str	r3, [r4, r0]
 80003bc:	3004      	adds	r0, #4
 80003be:	5023      	str	r3, [r4, r0]
 80003c0:	2a05      	cmp	r2, #5
 80003c2:	d025      	beq.n	8000410 <HAL_PCD_Init+0xec>
 80003c4:	2506      	movs	r5, #6
 80003c6:	3008      	adds	r0, #8
 80003c8:	35ff      	adds	r5, #255	; 0xff
 80003ca:	5225      	strh	r5, [r4, r0]
 80003cc:	3003      	adds	r0, #3
 80003ce:	5423      	strb	r3, [r4, r0]
 80003d0:	3009      	adds	r0, #9
 80003d2:	5023      	str	r3, [r4, r0]
 80003d4:	3004      	adds	r0, #4
 80003d6:	5023      	str	r3, [r4, r0]
 80003d8:	3004      	adds	r0, #4
 80003da:	5023      	str	r3, [r4, r0]
 80003dc:	2a06      	cmp	r2, #6
 80003de:	d017      	beq.n	8000410 <HAL_PCD_Init+0xec>
 80003e0:	3008      	adds	r0, #8
 80003e2:	3501      	adds	r5, #1
 80003e4:	5225      	strh	r5, [r4, r0]
 80003e6:	3003      	adds	r0, #3
 80003e8:	5423      	strb	r3, [r4, r0]
 80003ea:	3009      	adds	r0, #9
 80003ec:	5023      	str	r3, [r4, r0]
 80003ee:	3004      	adds	r0, #4
 80003f0:	5023      	str	r3, [r4, r0]
 80003f2:	3004      	adds	r0, #4
 80003f4:	5023      	str	r3, [r4, r0]
 80003f6:	2a07      	cmp	r2, #7
 80003f8:	d00a      	beq.n	8000410 <HAL_PCD_Init+0xec>
 80003fa:	2508      	movs	r5, #8
 80003fc:	3008      	adds	r0, #8
 80003fe:	35ff      	adds	r5, #255	; 0xff
 8000400:	5225      	strh	r5, [r4, r0]
 8000402:	3003      	adds	r0, #3
 8000404:	5423      	strb	r3, [r4, r0]
 8000406:	3009      	adds	r0, #9
 8000408:	5023      	str	r3, [r4, r0]
 800040a:	3004      	adds	r0, #4
 800040c:	5023      	str	r3, [r4, r0]
 800040e:	5063      	str	r3, [r4, r1]
 8000410:	2084      	movs	r0, #132	; 0x84
 8000412:	2300      	movs	r3, #0
 8000414:	0040      	lsls	r0, r0, #1
 8000416:	5223      	strh	r3, [r4, r0]
 8000418:	200c      	movs	r0, #12
 800041a:	2100      	movs	r1, #0
 800041c:	2501      	movs	r5, #1
 800041e:	30ff      	adds	r0, #255	; 0xff
 8000420:	5421      	strb	r1, [r4, r0]
 8000422:	3009      	adds	r0, #9
 8000424:	5023      	str	r3, [r4, r0]
 8000426:	3004      	adds	r0, #4
 8000428:	5023      	str	r3, [r4, r0]
 800042a:	3004      	adds	r0, #4
 800042c:	5023      	str	r3, [r4, r0]
 800042e:	3008      	adds	r0, #8
 8000430:	5225      	strh	r5, [r4, r0]
 8000432:	2028      	movs	r0, #40	; 0x28
 8000434:	30ff      	adds	r0, #255	; 0xff
 8000436:	5421      	strb	r1, [r4, r0]
 8000438:	3009      	adds	r0, #9
 800043a:	5023      	str	r3, [r4, r0]
 800043c:	3004      	adds	r0, #4
 800043e:	5023      	str	r3, [r4, r0]
 8000440:	3004      	adds	r0, #4
 8000442:	5023      	str	r3, [r4, r0]
 8000444:	3501      	adds	r5, #1
 8000446:	3008      	adds	r0, #8
 8000448:	5225      	strh	r5, [r4, r0]
 800044a:	2044      	movs	r0, #68	; 0x44
 800044c:	30ff      	adds	r0, #255	; 0xff
 800044e:	5421      	strb	r1, [r4, r0]
 8000450:	3009      	adds	r0, #9
 8000452:	5023      	str	r3, [r4, r0]
 8000454:	3004      	adds	r0, #4
 8000456:	5023      	str	r3, [r4, r0]
 8000458:	3004      	adds	r0, #4
 800045a:	5023      	str	r3, [r4, r0]
 800045c:	2a03      	cmp	r2, #3
 800045e:	d046      	beq.n	80004ee <HAL_PCD_Init+0x1ca>
 8000460:	20ae      	movs	r0, #174	; 0xae
 8000462:	2503      	movs	r5, #3
 8000464:	0040      	lsls	r0, r0, #1
 8000466:	5225      	strh	r5, [r4, r0]
 8000468:	2060      	movs	r0, #96	; 0x60
 800046a:	30ff      	adds	r0, #255	; 0xff
 800046c:	5421      	strb	r1, [r4, r0]
 800046e:	3009      	adds	r0, #9
 8000470:	5023      	str	r3, [r4, r0]
 8000472:	3004      	adds	r0, #4
 8000474:	5023      	str	r3, [r4, r0]
 8000476:	3004      	adds	r0, #4
 8000478:	5023      	str	r3, [r4, r0]
 800047a:	2a04      	cmp	r2, #4
 800047c:	d037      	beq.n	80004ee <HAL_PCD_Init+0x1ca>
 800047e:	3008      	adds	r0, #8
 8000480:	3501      	adds	r5, #1
 8000482:	5225      	strh	r5, [r4, r0]
 8000484:	207c      	movs	r0, #124	; 0x7c
 8000486:	30ff      	adds	r0, #255	; 0xff
 8000488:	5421      	strb	r1, [r4, r0]
 800048a:	3009      	adds	r0, #9
 800048c:	5023      	str	r3, [r4, r0]
 800048e:	3004      	adds	r0, #4
 8000490:	5023      	str	r3, [r4, r0]
 8000492:	3004      	adds	r0, #4
 8000494:	5023      	str	r3, [r4, r0]
 8000496:	2a05      	cmp	r2, #5
 8000498:	d029      	beq.n	80004ee <HAL_PCD_Init+0x1ca>
 800049a:	3008      	adds	r0, #8
 800049c:	3501      	adds	r5, #1
 800049e:	5225      	strh	r5, [r4, r0]
 80004a0:	2098      	movs	r0, #152	; 0x98
 80004a2:	30ff      	adds	r0, #255	; 0xff
 80004a4:	5421      	strb	r1, [r4, r0]
 80004a6:	3009      	adds	r0, #9
 80004a8:	5023      	str	r3, [r4, r0]
 80004aa:	3004      	adds	r0, #4
 80004ac:	5023      	str	r3, [r4, r0]
 80004ae:	3004      	adds	r0, #4
 80004b0:	5023      	str	r3, [r4, r0]
 80004b2:	2a06      	cmp	r2, #6
 80004b4:	d01b      	beq.n	80004ee <HAL_PCD_Init+0x1ca>
 80004b6:	3008      	adds	r0, #8
 80004b8:	3501      	adds	r5, #1
 80004ba:	5225      	strh	r5, [r4, r0]
 80004bc:	20b4      	movs	r0, #180	; 0xb4
 80004be:	30ff      	adds	r0, #255	; 0xff
 80004c0:	5421      	strb	r1, [r4, r0]
 80004c2:	3009      	adds	r0, #9
 80004c4:	5023      	str	r3, [r4, r0]
 80004c6:	3004      	adds	r0, #4
 80004c8:	5023      	str	r3, [r4, r0]
 80004ca:	3004      	adds	r0, #4
 80004cc:	5023      	str	r3, [r4, r0]
 80004ce:	2a07      	cmp	r2, #7
 80004d0:	d00d      	beq.n	80004ee <HAL_PCD_Init+0x1ca>
 80004d2:	22e6      	movs	r2, #230	; 0xe6
 80004d4:	38be      	subs	r0, #190	; 0xbe
 80004d6:	0052      	lsls	r2, r2, #1
 80004d8:	38ff      	subs	r0, #255	; 0xff
 80004da:	52a0      	strh	r0, [r4, r2]
 80004dc:	22d0      	movs	r2, #208	; 0xd0
 80004de:	32ff      	adds	r2, #255	; 0xff
 80004e0:	54a1      	strb	r1, [r4, r2]
 80004e2:	3209      	adds	r2, #9
 80004e4:	50a3      	str	r3, [r4, r2]
 80004e6:	3204      	adds	r2, #4
 80004e8:	50a3      	str	r3, [r4, r2]
 80004ea:	3204      	adds	r2, #4
 80004ec:	50a3      	str	r3, [r4, r2]
 80004ee:	2240      	movs	r2, #64	; 0x40
 80004f0:	2101      	movs	r1, #1
 80004f2:	6823      	ldr	r3, [r4, #0]
 80004f4:	2044      	movs	r0, #68	; 0x44
 80004f6:	5299      	strh	r1, [r3, r2]
 80004f8:	2100      	movs	r1, #0
 80004fa:	5299      	strh	r1, [r3, r2]
 80004fc:	5219      	strh	r1, [r3, r0]
 80004fe:	300c      	adds	r0, #12
 8000500:	5219      	strh	r1, [r3, r0]
 8000502:	4917      	ldr	r1, [pc, #92]	; (8000560 <HAL_PCD_Init+0x23c>)
 8000504:	2000      	movs	r0, #0
 8000506:	5299      	strh	r1, [r3, r2]
 8000508:	2200      	movs	r2, #0
 800050a:	2324      	movs	r3, #36	; 0x24
 800050c:	54e2      	strb	r2, [r4, r3]
 800050e:	23ea      	movs	r3, #234	; 0xea
 8000510:	2201      	movs	r2, #1
 8000512:	33ff      	adds	r3, #255	; 0xff
 8000514:	54e2      	strb	r2, [r4, r3]
 8000516:	bd70      	pop	{r4, r5, r6, pc}
 8000518:	22f4      	movs	r2, #244	; 0xf4
 800051a:	0052      	lsls	r2, r2, #1
 800051c:	5483      	strb	r3, [r0, r2]
 800051e:	f002 fc13 	bl	8002d48 <HAL_PCD_MspInit>
 8000522:	e70a      	b.n	800033a <HAL_PCD_Init+0x16>
 8000524:	2001      	movs	r0, #1
 8000526:	e7f6      	b.n	8000516 <HAL_PCD_Init+0x1f2>
 8000528:	2184      	movs	r1, #132	; 0x84
 800052a:	0049      	lsls	r1, r1, #1
 800052c:	5263      	strh	r3, [r4, r1]
 800052e:	210c      	movs	r1, #12
 8000530:	2200      	movs	r2, #0
 8000532:	2001      	movs	r0, #1
 8000534:	31ff      	adds	r1, #255	; 0xff
 8000536:	5462      	strb	r2, [r4, r1]
 8000538:	3109      	adds	r1, #9
 800053a:	5063      	str	r3, [r4, r1]
 800053c:	3104      	adds	r1, #4
 800053e:	5063      	str	r3, [r4, r1]
 8000540:	3104      	adds	r1, #4
 8000542:	5063      	str	r3, [r4, r1]
 8000544:	3108      	adds	r1, #8
 8000546:	5260      	strh	r0, [r4, r1]
 8000548:	2128      	movs	r1, #40	; 0x28
 800054a:	31ff      	adds	r1, #255	; 0xff
 800054c:	5462      	strb	r2, [r4, r1]
 800054e:	2298      	movs	r2, #152	; 0x98
 8000550:	0052      	lsls	r2, r2, #1
 8000552:	e7c7      	b.n	80004e4 <HAL_PCD_Init+0x1c0>
 8000554:	2284      	movs	r2, #132	; 0x84
 8000556:	0052      	lsls	r2, r2, #1
 8000558:	52a3      	strh	r3, [r4, r2]
 800055a:	2100      	movs	r1, #0
 800055c:	220c      	movs	r2, #12
 800055e:	e7be      	b.n	80004de <HAL_PCD_Init+0x1ba>
 8000560:	ffffbf00 	.word	0xffffbf00

08000564 <HAL_PCD_Start>:
 8000564:	2258      	movs	r2, #88	; 0x58
 8000566:	6801      	ldr	r1, [r0, #0]
 8000568:	2080      	movs	r0, #128	; 0x80
 800056a:	5a8b      	ldrh	r3, [r1, r2]
 800056c:	0200      	lsls	r0, r0, #8
 800056e:	4303      	orrs	r3, r0
 8000570:	528b      	strh	r3, [r1, r2]
 8000572:	2000      	movs	r0, #0
 8000574:	4770      	bx	lr
 8000576:	46c0      	nop			; (mov r8, r8)

08000578 <HAL_PCD_SetAddress>:
 8000578:	23f4      	movs	r3, #244	; 0xf4
 800057a:	005b      	lsls	r3, r3, #1
 800057c:	5cc2      	ldrb	r2, [r0, r3]
 800057e:	2a01      	cmp	r2, #1
 8000580:	d011      	beq.n	80005a6 <HAL_PCD_SetAddress+0x2e>
 8000582:	2201      	movs	r2, #1
 8000584:	54c2      	strb	r2, [r0, r3]
 8000586:	2900      	cmp	r1, #0
 8000588:	d007      	beq.n	800059a <HAL_PCD_SetAddress+0x22>
 800058a:	2324      	movs	r3, #36	; 0x24
 800058c:	54c1      	strb	r1, [r0, r3]
 800058e:	23f4      	movs	r3, #244	; 0xf4
 8000590:	2200      	movs	r2, #0
 8000592:	005b      	lsls	r3, r3, #1
 8000594:	54c2      	strb	r2, [r0, r3]
 8000596:	2000      	movs	r0, #0
 8000598:	4770      	bx	lr
 800059a:	3b9d      	subs	r3, #157	; 0x9d
 800059c:	6801      	ldr	r1, [r0, #0]
 800059e:	3bff      	subs	r3, #255	; 0xff
 80005a0:	327f      	adds	r2, #127	; 0x7f
 80005a2:	52ca      	strh	r2, [r1, r3]
 80005a4:	e7f3      	b.n	800058e <HAL_PCD_SetAddress+0x16>
 80005a6:	2002      	movs	r0, #2
 80005a8:	e7f6      	b.n	8000598 <HAL_PCD_SetAddress+0x20>
 80005aa:	46c0      	nop			; (mov r8, r8)

080005ac <HAL_PCD_EP_Open>:
 80005ac:	b5f0      	push	{r4, r5, r6, r7, lr}
 80005ae:	46c6      	mov	lr, r8
 80005b0:	267f      	movs	r6, #127	; 0x7f
 80005b2:	b24d      	sxtb	r5, r1
 80005b4:	b500      	push	{lr}
 80005b6:	400e      	ands	r6, r1
 80005b8:	2d00      	cmp	r5, #0
 80005ba:	da00      	bge.n	80005be <HAL_PCD_EP_Open+0x12>
 80005bc:	e0b8      	b.n	8000730 <HAL_PCD_EP_Open+0x184>
 80005be:	00cc      	lsls	r4, r1, #3
 80005c0:	1a61      	subs	r1, r4, r1
 80005c2:	0089      	lsls	r1, r1, #2
 80005c4:	3109      	adds	r1, #9
 80005c6:	31ff      	adds	r1, #255	; 0xff
 80005c8:	1841      	adds	r1, r0, r1
 80005ca:	70cb      	strb	r3, [r1, #3]
 80005cc:	23f4      	movs	r3, #244	; 0xf4
 80005ce:	0fed      	lsrs	r5, r5, #31
 80005d0:	700e      	strb	r6, [r1, #0]
 80005d2:	704d      	strb	r5, [r1, #1]
 80005d4:	60ca      	str	r2, [r1, #12]
 80005d6:	005b      	lsls	r3, r3, #1
 80005d8:	5cc4      	ldrb	r4, [r0, r3]
 80005da:	2c01      	cmp	r4, #1
 80005dc:	d100      	bne.n	80005e0 <HAL_PCD_EP_Open+0x34>
 80005de:	e13c      	b.n	800085a <HAL_PCD_EP_Open+0x2ae>
 80005e0:	2401      	movs	r4, #1
 80005e2:	54c4      	strb	r4, [r0, r3]
 80005e4:	78cc      	ldrb	r4, [r1, #3]
 80005e6:	6803      	ldr	r3, [r0, #0]
 80005e8:	2c01      	cmp	r4, #1
 80005ea:	d100      	bne.n	80005ee <HAL_PCD_EP_Open+0x42>
 80005ec:	e141      	b.n	8000872 <HAL_PCD_EP_Open+0x2c6>
 80005ee:	2c00      	cmp	r4, #0
 80005f0:	d100      	bne.n	80005f4 <HAL_PCD_EP_Open+0x48>
 80005f2:	e114      	b.n	800081e <HAL_PCD_EP_Open+0x272>
 80005f4:	2c02      	cmp	r4, #2
 80005f6:	d100      	bne.n	80005fa <HAL_PCD_EP_Open+0x4e>
 80005f8:	e131      	b.n	800085e <HAL_PCD_EP_Open+0x2b2>
 80005fa:	2c03      	cmp	r4, #3
 80005fc:	d100      	bne.n	8000600 <HAL_PCD_EP_Open+0x54>
 80005fe:	e104      	b.n	800080a <HAL_PCD_EP_Open+0x25e>
 8000600:	780c      	ldrb	r4, [r1, #0]
 8000602:	4da1      	ldr	r5, [pc, #644]	; (8000888 <HAL_PCD_EP_Open+0x2dc>)
 8000604:	46a4      	mov	ip, r4
 8000606:	00a6      	lsls	r6, r4, #2
 8000608:	199e      	adds	r6, r3, r6
 800060a:	8834      	ldrh	r4, [r6, #0]
 800060c:	46a8      	mov	r8, r5
 800060e:	402c      	ands	r4, r5
 8000610:	4665      	mov	r5, ip
 8000612:	4f9e      	ldr	r7, [pc, #632]	; (800088c <HAL_PCD_EP_Open+0x2e0>)
 8000614:	432f      	orrs	r7, r5
 8000616:	433c      	orrs	r4, r7
 8000618:	b2a4      	uxth	r4, r4
 800061a:	8034      	strh	r4, [r6, #0]
 800061c:	7a8c      	ldrb	r4, [r1, #10]
 800061e:	2c00      	cmp	r4, #0
 8000620:	d129      	bne.n	8000676 <HAL_PCD_EP_Open+0xca>
 8000622:	2701      	movs	r7, #1
 8000624:	780c      	ldrb	r4, [r1, #0]
 8000626:	888e      	ldrh	r6, [r1, #4]
 8000628:	00e4      	lsls	r4, r4, #3
 800062a:	46a4      	mov	ip, r4
 800062c:	784c      	ldrb	r4, [r1, #1]
 800062e:	43be      	bics	r6, r7
 8000630:	2c00      	cmp	r4, #0
 8000632:	d100      	bne.n	8000636 <HAL_PCD_EP_Open+0x8a>
 8000634:	e0b7      	b.n	80007a6 <HAL_PCD_EP_Open+0x1fa>
 8000636:	2250      	movs	r2, #80	; 0x50
 8000638:	5a9c      	ldrh	r4, [r3, r2]
 800063a:	2280      	movs	r2, #128	; 0x80
 800063c:	191c      	adds	r4, r3, r4
 800063e:	00d2      	lsls	r2, r2, #3
 8000640:	4464      	add	r4, ip
 8000642:	4694      	mov	ip, r2
 8000644:	4464      	add	r4, ip
 8000646:	8026      	strh	r6, [r4, #0]
 8000648:	780a      	ldrb	r2, [r1, #0]
 800064a:	0092      	lsls	r2, r2, #2
 800064c:	189a      	adds	r2, r3, r2
 800064e:	8814      	ldrh	r4, [r2, #0]
 8000650:	0664      	lsls	r4, r4, #25
 8000652:	d500      	bpl.n	8000656 <HAL_PCD_EP_Open+0xaa>
 8000654:	e0ed      	b.n	8000832 <HAL_PCD_EP_Open+0x286>
 8000656:	8813      	ldrh	r3, [r2, #0]
 8000658:	498d      	ldr	r1, [pc, #564]	; (8000890 <HAL_PCD_EP_Open+0x2e4>)
 800065a:	400b      	ands	r3, r1
 800065c:	2120      	movs	r1, #32
 800065e:	404b      	eors	r3, r1
 8000660:	498c      	ldr	r1, [pc, #560]	; (8000894 <HAL_PCD_EP_Open+0x2e8>)
 8000662:	430b      	orrs	r3, r1
 8000664:	8013      	strh	r3, [r2, #0]
 8000666:	23f4      	movs	r3, #244	; 0xf4
 8000668:	2200      	movs	r2, #0
 800066a:	005b      	lsls	r3, r3, #1
 800066c:	54c2      	strb	r2, [r0, r3]
 800066e:	2000      	movs	r0, #0
 8000670:	bc04      	pop	{r2}
 8000672:	4690      	mov	r8, r2
 8000674:	bdf0      	pop	{r4, r5, r6, r7, pc}
 8000676:	2750      	movs	r7, #80	; 0x50
 8000678:	780a      	ldrb	r2, [r1, #0]
 800067a:	4e87      	ldr	r6, [pc, #540]	; (8000898 <HAL_PCD_EP_Open+0x2ec>)
 800067c:	0092      	lsls	r2, r2, #2
 800067e:	189a      	adds	r2, r3, r2
 8000680:	8814      	ldrh	r4, [r2, #0]
 8000682:	4034      	ands	r4, r6
 8000684:	4e85      	ldr	r6, [pc, #532]	; (800089c <HAL_PCD_EP_Open+0x2f0>)
 8000686:	4334      	orrs	r4, r6
 8000688:	8014      	strh	r4, [r2, #0]
 800068a:	780a      	ldrb	r2, [r1, #0]
 800068c:	5bdc      	ldrh	r4, [r3, r7]
 800068e:	00d2      	lsls	r2, r2, #3
 8000690:	1912      	adds	r2, r2, r4
 8000692:	2480      	movs	r4, #128	; 0x80
 8000694:	00e4      	lsls	r4, r4, #3
 8000696:	46a4      	mov	ip, r4
 8000698:	2601      	movs	r6, #1
 800069a:	88cc      	ldrh	r4, [r1, #6]
 800069c:	18d2      	adds	r2, r2, r3
 800069e:	4462      	add	r2, ip
 80006a0:	43b4      	bics	r4, r6
 80006a2:	8014      	strh	r4, [r2, #0]
 80006a4:	780a      	ldrb	r2, [r1, #0]
 80006a6:	5bdc      	ldrh	r4, [r3, r7]
 80006a8:	00d2      	lsls	r2, r2, #3
 80006aa:	1912      	adds	r2, r2, r4
 80006ac:	4c7c      	ldr	r4, [pc, #496]	; (80008a0 <HAL_PCD_EP_Open+0x2f4>)
 80006ae:	18d2      	adds	r2, r2, r3
 80006b0:	46a4      	mov	ip, r4
 80006b2:	890c      	ldrh	r4, [r1, #8]
 80006b4:	4462      	add	r2, ip
 80006b6:	43b4      	bics	r4, r6
 80006b8:	8014      	strh	r4, [r2, #0]
 80006ba:	784a      	ldrb	r2, [r1, #1]
 80006bc:	2a00      	cmp	r2, #0
 80006be:	d13d      	bne.n	800073c <HAL_PCD_EP_Open+0x190>
 80006c0:	780a      	ldrb	r2, [r1, #0]
 80006c2:	0092      	lsls	r2, r2, #2
 80006c4:	189a      	adds	r2, r3, r2
 80006c6:	8814      	ldrh	r4, [r2, #0]
 80006c8:	0464      	lsls	r4, r4, #17
 80006ca:	d508      	bpl.n	80006de <HAL_PCD_EP_Open+0x132>
 80006cc:	4645      	mov	r5, r8
 80006ce:	8814      	ldrh	r4, [r2, #0]
 80006d0:	4025      	ands	r5, r4
 80006d2:	4c74      	ldr	r4, [pc, #464]	; (80008a4 <HAL_PCD_EP_Open+0x2f8>)
 80006d4:	4325      	orrs	r5, r4
 80006d6:	8015      	strh	r5, [r2, #0]
 80006d8:	780a      	ldrb	r2, [r1, #0]
 80006da:	0092      	lsls	r2, r2, #2
 80006dc:	189a      	adds	r2, r3, r2
 80006de:	8814      	ldrh	r4, [r2, #0]
 80006e0:	0664      	lsls	r4, r4, #25
 80006e2:	d508      	bpl.n	80006f6 <HAL_PCD_EP_Open+0x14a>
 80006e4:	8814      	ldrh	r4, [r2, #0]
 80006e6:	4d68      	ldr	r5, [pc, #416]	; (8000888 <HAL_PCD_EP_Open+0x2dc>)
 80006e8:	402c      	ands	r4, r5
 80006ea:	4d6f      	ldr	r5, [pc, #444]	; (80008a8 <HAL_PCD_EP_Open+0x2fc>)
 80006ec:	432c      	orrs	r4, r5
 80006ee:	8014      	strh	r4, [r2, #0]
 80006f0:	780a      	ldrb	r2, [r1, #0]
 80006f2:	0092      	lsls	r2, r2, #2
 80006f4:	189a      	adds	r2, r3, r2
 80006f6:	8814      	ldrh	r4, [r2, #0]
 80006f8:	4d63      	ldr	r5, [pc, #396]	; (8000888 <HAL_PCD_EP_Open+0x2dc>)
 80006fa:	402c      	ands	r4, r5
 80006fc:	4d6a      	ldr	r5, [pc, #424]	; (80008a8 <HAL_PCD_EP_Open+0x2fc>)
 80006fe:	432c      	orrs	r4, r5
 8000700:	8014      	strh	r4, [r2, #0]
 8000702:	780c      	ldrb	r4, [r1, #0]
 8000704:	4d69      	ldr	r5, [pc, #420]	; (80008ac <HAL_PCD_EP_Open+0x300>)
 8000706:	00a4      	lsls	r4, r4, #2
 8000708:	191c      	adds	r4, r3, r4
 800070a:	8822      	ldrh	r2, [r4, #0]
 800070c:	4015      	ands	r5, r2
 800070e:	22c0      	movs	r2, #192	; 0xc0
 8000710:	0192      	lsls	r2, r2, #6
 8000712:	406a      	eors	r2, r5
 8000714:	4d5d      	ldr	r5, [pc, #372]	; (800088c <HAL_PCD_EP_Open+0x2e0>)
 8000716:	432a      	orrs	r2, r5
 8000718:	b292      	uxth	r2, r2
 800071a:	8022      	strh	r2, [r4, #0]
 800071c:	780a      	ldrb	r2, [r1, #0]
 800071e:	0092      	lsls	r2, r2, #2
 8000720:	189b      	adds	r3, r3, r2
 8000722:	8819      	ldrh	r1, [r3, #0]
 8000724:	4a5a      	ldr	r2, [pc, #360]	; (8000890 <HAL_PCD_EP_Open+0x2e4>)
 8000726:	400a      	ands	r2, r1
 8000728:	432a      	orrs	r2, r5
 800072a:	b292      	uxth	r2, r2
 800072c:	801a      	strh	r2, [r3, #0]
 800072e:	e79a      	b.n	8000666 <HAL_PCD_EP_Open+0xba>
 8000730:	00f1      	lsls	r1, r6, #3
 8000732:	1b89      	subs	r1, r1, r6
 8000734:	0089      	lsls	r1, r1, #2
 8000736:	3128      	adds	r1, #40	; 0x28
 8000738:	1841      	adds	r1, r0, r1
 800073a:	e746      	b.n	80005ca <HAL_PCD_EP_Open+0x1e>
 800073c:	780a      	ldrb	r2, [r1, #0]
 800073e:	0092      	lsls	r2, r2, #2
 8000740:	189a      	adds	r2, r3, r2
 8000742:	8814      	ldrh	r4, [r2, #0]
 8000744:	0464      	lsls	r4, r4, #17
 8000746:	d508      	bpl.n	800075a <HAL_PCD_EP_Open+0x1ae>
 8000748:	4645      	mov	r5, r8
 800074a:	8814      	ldrh	r4, [r2, #0]
 800074c:	4025      	ands	r5, r4
 800074e:	4c55      	ldr	r4, [pc, #340]	; (80008a4 <HAL_PCD_EP_Open+0x2f8>)
 8000750:	4325      	orrs	r5, r4
 8000752:	8015      	strh	r5, [r2, #0]
 8000754:	780a      	ldrb	r2, [r1, #0]
 8000756:	0092      	lsls	r2, r2, #2
 8000758:	189a      	adds	r2, r3, r2
 800075a:	8814      	ldrh	r4, [r2, #0]
 800075c:	0664      	lsls	r4, r4, #25
 800075e:	d508      	bpl.n	8000772 <HAL_PCD_EP_Open+0x1c6>
 8000760:	8814      	ldrh	r4, [r2, #0]
 8000762:	4d49      	ldr	r5, [pc, #292]	; (8000888 <HAL_PCD_EP_Open+0x2dc>)
 8000764:	402c      	ands	r4, r5
 8000766:	4d50      	ldr	r5, [pc, #320]	; (80008a8 <HAL_PCD_EP_Open+0x2fc>)
 8000768:	432c      	orrs	r4, r5
 800076a:	8014      	strh	r4, [r2, #0]
 800076c:	780a      	ldrb	r2, [r1, #0]
 800076e:	0092      	lsls	r2, r2, #2
 8000770:	189a      	adds	r2, r3, r2
 8000772:	8814      	ldrh	r4, [r2, #0]
 8000774:	4d44      	ldr	r5, [pc, #272]	; (8000888 <HAL_PCD_EP_Open+0x2dc>)
 8000776:	402c      	ands	r4, r5
 8000778:	4d4a      	ldr	r5, [pc, #296]	; (80008a4 <HAL_PCD_EP_Open+0x2f8>)
 800077a:	432c      	orrs	r4, r5
 800077c:	8014      	strh	r4, [r2, #0]
 800077e:	780c      	ldrb	r4, [r1, #0]
 8000780:	4d43      	ldr	r5, [pc, #268]	; (8000890 <HAL_PCD_EP_Open+0x2e4>)
 8000782:	00a4      	lsls	r4, r4, #2
 8000784:	191c      	adds	r4, r3, r4
 8000786:	8822      	ldrh	r2, [r4, #0]
 8000788:	402a      	ands	r2, r5
 800078a:	4d40      	ldr	r5, [pc, #256]	; (800088c <HAL_PCD_EP_Open+0x2e0>)
 800078c:	432a      	orrs	r2, r5
 800078e:	b292      	uxth	r2, r2
 8000790:	8022      	strh	r2, [r4, #0]
 8000792:	7809      	ldrb	r1, [r1, #0]
 8000794:	4a45      	ldr	r2, [pc, #276]	; (80008ac <HAL_PCD_EP_Open+0x300>)
 8000796:	0089      	lsls	r1, r1, #2
 8000798:	185b      	adds	r3, r3, r1
 800079a:	8819      	ldrh	r1, [r3, #0]
 800079c:	400a      	ands	r2, r1
 800079e:	432a      	orrs	r2, r5
 80007a0:	b292      	uxth	r2, r2
 80007a2:	801a      	strh	r2, [r3, #0]
 80007a4:	e75f      	b.n	8000666 <HAL_PCD_EP_Open+0xba>
 80007a6:	2550      	movs	r5, #80	; 0x50
 80007a8:	5b5c      	ldrh	r4, [r3, r5]
 80007aa:	191c      	adds	r4, r3, r4
 80007ac:	4464      	add	r4, ip
 80007ae:	46a0      	mov	r8, r4
 80007b0:	4c3b      	ldr	r4, [pc, #236]	; (80008a0 <HAL_PCD_EP_Open+0x2f4>)
 80007b2:	46a4      	mov	ip, r4
 80007b4:	4644      	mov	r4, r8
 80007b6:	4464      	add	r4, ip
 80007b8:	8026      	strh	r6, [r4, #0]
 80007ba:	780c      	ldrb	r4, [r1, #0]
 80007bc:	5b5d      	ldrh	r5, [r3, r5]
 80007be:	00e4      	lsls	r4, r4, #3
 80007c0:	1964      	adds	r4, r4, r5
 80007c2:	4d3b      	ldr	r5, [pc, #236]	; (80008b0 <HAL_PCD_EP_Open+0x304>)
 80007c4:	195d      	adds	r5, r3, r5
 80007c6:	1964      	adds	r4, r4, r5
 80007c8:	2a3e      	cmp	r2, #62	; 0x3e
 80007ca:	d83c      	bhi.n	8000846 <HAL_PCD_EP_Open+0x29a>
 80007cc:	0855      	lsrs	r5, r2, #1
 80007ce:	4217      	tst	r7, r2
 80007d0:	d000      	beq.n	80007d4 <HAL_PCD_EP_Open+0x228>
 80007d2:	3501      	adds	r5, #1
 80007d4:	02ad      	lsls	r5, r5, #10
 80007d6:	8025      	strh	r5, [r4, #0]
 80007d8:	780a      	ldrb	r2, [r1, #0]
 80007da:	0092      	lsls	r2, r2, #2
 80007dc:	189a      	adds	r2, r3, r2
 80007de:	8814      	ldrh	r4, [r2, #0]
 80007e0:	0464      	lsls	r4, r4, #17
 80007e2:	d508      	bpl.n	80007f6 <HAL_PCD_EP_Open+0x24a>
 80007e4:	8814      	ldrh	r4, [r2, #0]
 80007e6:	4d28      	ldr	r5, [pc, #160]	; (8000888 <HAL_PCD_EP_Open+0x2dc>)
 80007e8:	402c      	ands	r4, r5
 80007ea:	4d2e      	ldr	r5, [pc, #184]	; (80008a4 <HAL_PCD_EP_Open+0x2f8>)
 80007ec:	432c      	orrs	r4, r5
 80007ee:	8014      	strh	r4, [r2, #0]
 80007f0:	780a      	ldrb	r2, [r1, #0]
 80007f2:	0092      	lsls	r2, r2, #2
 80007f4:	189a      	adds	r2, r3, r2
 80007f6:	8813      	ldrh	r3, [r2, #0]
 80007f8:	492c      	ldr	r1, [pc, #176]	; (80008ac <HAL_PCD_EP_Open+0x300>)
 80007fa:	4019      	ands	r1, r3
 80007fc:	23c0      	movs	r3, #192	; 0xc0
 80007fe:	019b      	lsls	r3, r3, #6
 8000800:	404b      	eors	r3, r1
 8000802:	4924      	ldr	r1, [pc, #144]	; (8000894 <HAL_PCD_EP_Open+0x2e8>)
 8000804:	430b      	orrs	r3, r1
 8000806:	8013      	strh	r3, [r2, #0]
 8000808:	e72d      	b.n	8000666 <HAL_PCD_EP_Open+0xba>
 800080a:	780c      	ldrb	r4, [r1, #0]
 800080c:	4e29      	ldr	r6, [pc, #164]	; (80008b4 <HAL_PCD_EP_Open+0x308>)
 800080e:	00a4      	lsls	r4, r4, #2
 8000810:	191c      	adds	r4, r3, r4
 8000812:	8825      	ldrh	r5, [r4, #0]
 8000814:	4035      	ands	r5, r6
 8000816:	4e28      	ldr	r6, [pc, #160]	; (80008b8 <HAL_PCD_EP_Open+0x30c>)
 8000818:	4335      	orrs	r5, r6
 800081a:	8025      	strh	r5, [r4, #0]
 800081c:	e6f0      	b.n	8000600 <HAL_PCD_EP_Open+0x54>
 800081e:	780c      	ldrb	r4, [r1, #0]
 8000820:	4e24      	ldr	r6, [pc, #144]	; (80008b4 <HAL_PCD_EP_Open+0x308>)
 8000822:	00a4      	lsls	r4, r4, #2
 8000824:	191c      	adds	r4, r3, r4
 8000826:	8825      	ldrh	r5, [r4, #0]
 8000828:	4035      	ands	r5, r6
 800082a:	4e24      	ldr	r6, [pc, #144]	; (80008bc <HAL_PCD_EP_Open+0x310>)
 800082c:	4335      	orrs	r5, r6
 800082e:	8025      	strh	r5, [r4, #0]
 8000830:	e6e6      	b.n	8000600 <HAL_PCD_EP_Open+0x54>
 8000832:	4645      	mov	r5, r8
 8000834:	8814      	ldrh	r4, [r2, #0]
 8000836:	4025      	ands	r5, r4
 8000838:	4c1b      	ldr	r4, [pc, #108]	; (80008a8 <HAL_PCD_EP_Open+0x2fc>)
 800083a:	4325      	orrs	r5, r4
 800083c:	8015      	strh	r5, [r2, #0]
 800083e:	780a      	ldrb	r2, [r1, #0]
 8000840:	0092      	lsls	r2, r2, #2
 8000842:	189a      	adds	r2, r3, r2
 8000844:	e707      	b.n	8000656 <HAL_PCD_EP_Open+0xaa>
 8000846:	0955      	lsrs	r5, r2, #5
 8000848:	06d2      	lsls	r2, r2, #27
 800084a:	d101      	bne.n	8000850 <HAL_PCD_EP_Open+0x2a4>
 800084c:	3d01      	subs	r5, #1
 800084e:	b2ad      	uxth	r5, r5
 8000850:	4a1b      	ldr	r2, [pc, #108]	; (80008c0 <HAL_PCD_EP_Open+0x314>)
 8000852:	02ad      	lsls	r5, r5, #10
 8000854:	4315      	orrs	r5, r2
 8000856:	8025      	strh	r5, [r4, #0]
 8000858:	e7be      	b.n	80007d8 <HAL_PCD_EP_Open+0x22c>
 800085a:	2002      	movs	r0, #2
 800085c:	e708      	b.n	8000670 <HAL_PCD_EP_Open+0xc4>
 800085e:	780c      	ldrb	r4, [r1, #0]
 8000860:	4e14      	ldr	r6, [pc, #80]	; (80008b4 <HAL_PCD_EP_Open+0x308>)
 8000862:	00a4      	lsls	r4, r4, #2
 8000864:	191c      	adds	r4, r3, r4
 8000866:	8825      	ldrh	r5, [r4, #0]
 8000868:	4035      	ands	r5, r6
 800086a:	4e0a      	ldr	r6, [pc, #40]	; (8000894 <HAL_PCD_EP_Open+0x2e8>)
 800086c:	4335      	orrs	r5, r6
 800086e:	8025      	strh	r5, [r4, #0]
 8000870:	e6c6      	b.n	8000600 <HAL_PCD_EP_Open+0x54>
 8000872:	780c      	ldrb	r4, [r1, #0]
 8000874:	4e0f      	ldr	r6, [pc, #60]	; (80008b4 <HAL_PCD_EP_Open+0x308>)
 8000876:	00a4      	lsls	r4, r4, #2
 8000878:	191c      	adds	r4, r3, r4
 800087a:	8825      	ldrh	r5, [r4, #0]
 800087c:	4035      	ands	r5, r6
 800087e:	4e11      	ldr	r6, [pc, #68]	; (80008c4 <HAL_PCD_EP_Open+0x318>)
 8000880:	4335      	orrs	r5, r6
 8000882:	8025      	strh	r5, [r4, #0]
 8000884:	e6bc      	b.n	8000600 <HAL_PCD_EP_Open+0x54>
 8000886:	46c0      	nop			; (mov r8, r8)
 8000888:	00000f0f 	.word	0x00000f0f
 800088c:	ffff8080 	.word	0xffff8080
 8000890:	ffff8fbf 	.word	0xffff8fbf
 8000894:	00008080 	.word	0x00008080
 8000898:	00000e0f 	.word	0x00000e0f
 800089c:	00008180 	.word	0x00008180
 80008a0:	00000404 	.word	0x00000404
 80008a4:	0000c080 	.word	0x0000c080
 80008a8:	000080c0 	.word	0x000080c0
 80008ac:	ffffbf8f 	.word	0xffffbf8f
 80008b0:	00000406 	.word	0x00000406
 80008b4:	0000090f 	.word	0x0000090f
 80008b8:	00008680 	.word	0x00008680
 80008bc:	00008280 	.word	0x00008280
 80008c0:	ffff8000 	.word	0xffff8000
 80008c4:	00008480 	.word	0x00008480

080008c8 <HAL_PCD_EP_Close>:
 80008c8:	227f      	movs	r2, #127	; 0x7f
 80008ca:	b530      	push	{r4, r5, lr}
 80008cc:	b24c      	sxtb	r4, r1
 80008ce:	400a      	ands	r2, r1
 80008d0:	2c00      	cmp	r4, #0
 80008d2:	db61      	blt.n	8000998 <HAL_PCD_EP_Close+0xd0>
 80008d4:	00cb      	lsls	r3, r1, #3
 80008d6:	1a59      	subs	r1, r3, r1
 80008d8:	23f4      	movs	r3, #244	; 0xf4
 80008da:	0089      	lsls	r1, r1, #2
 80008dc:	3109      	adds	r1, #9
 80008de:	31ff      	adds	r1, #255	; 0xff
 80008e0:	1841      	adds	r1, r0, r1
 80008e2:	0fe4      	lsrs	r4, r4, #31
 80008e4:	700a      	strb	r2, [r1, #0]
 80008e6:	704c      	strb	r4, [r1, #1]
 80008e8:	005b      	lsls	r3, r3, #1
 80008ea:	5cc2      	ldrb	r2, [r0, r3]
 80008ec:	2a01      	cmp	r2, #1
 80008ee:	d060      	beq.n	80009b2 <HAL_PCD_EP_Close+0xea>
 80008f0:	2201      	movs	r2, #1
 80008f2:	54c2      	strb	r2, [r0, r3]
 80008f4:	7a8b      	ldrb	r3, [r1, #10]
 80008f6:	6802      	ldr	r2, [r0, #0]
 80008f8:	2b00      	cmp	r3, #0
 80008fa:	d115      	bne.n	8000928 <HAL_PCD_EP_Close+0x60>
 80008fc:	780b      	ldrb	r3, [r1, #0]
 80008fe:	784c      	ldrb	r4, [r1, #1]
 8000900:	009b      	lsls	r3, r3, #2
 8000902:	18d3      	adds	r3, r2, r3
 8000904:	2c00      	cmp	r4, #0
 8000906:	d056      	beq.n	80009b6 <HAL_PCD_EP_Close+0xee>
 8000908:	881c      	ldrh	r4, [r3, #0]
 800090a:	0664      	lsls	r4, r4, #25
 800090c:	d500      	bpl.n	8000910 <HAL_PCD_EP_Close+0x48>
 800090e:	e097      	b.n	8000a40 <HAL_PCD_EP_Close+0x178>
 8000910:	881a      	ldrh	r2, [r3, #0]
 8000912:	4950      	ldr	r1, [pc, #320]	; (8000a54 <HAL_PCD_EP_Close+0x18c>)
 8000914:	400a      	ands	r2, r1
 8000916:	4950      	ldr	r1, [pc, #320]	; (8000a58 <HAL_PCD_EP_Close+0x190>)
 8000918:	430a      	orrs	r2, r1
 800091a:	801a      	strh	r2, [r3, #0]
 800091c:	23f4      	movs	r3, #244	; 0xf4
 800091e:	2200      	movs	r2, #0
 8000920:	005b      	lsls	r3, r3, #1
 8000922:	54c2      	strb	r2, [r0, r3]
 8000924:	2000      	movs	r0, #0
 8000926:	bd30      	pop	{r4, r5, pc}
 8000928:	780b      	ldrb	r3, [r1, #0]
 800092a:	784c      	ldrb	r4, [r1, #1]
 800092c:	009b      	lsls	r3, r3, #2
 800092e:	18d3      	adds	r3, r2, r3
 8000930:	2c00      	cmp	r4, #0
 8000932:	d153      	bne.n	80009dc <HAL_PCD_EP_Close+0x114>
 8000934:	881c      	ldrh	r4, [r3, #0]
 8000936:	0464      	lsls	r4, r4, #17
 8000938:	d508      	bpl.n	800094c <HAL_PCD_EP_Close+0x84>
 800093a:	881c      	ldrh	r4, [r3, #0]
 800093c:	4d47      	ldr	r5, [pc, #284]	; (8000a5c <HAL_PCD_EP_Close+0x194>)
 800093e:	402c      	ands	r4, r5
 8000940:	4d47      	ldr	r5, [pc, #284]	; (8000a60 <HAL_PCD_EP_Close+0x198>)
 8000942:	432c      	orrs	r4, r5
 8000944:	801c      	strh	r4, [r3, #0]
 8000946:	780b      	ldrb	r3, [r1, #0]
 8000948:	009b      	lsls	r3, r3, #2
 800094a:	18d3      	adds	r3, r2, r3
 800094c:	881c      	ldrh	r4, [r3, #0]
 800094e:	0664      	lsls	r4, r4, #25
 8000950:	d508      	bpl.n	8000964 <HAL_PCD_EP_Close+0x9c>
 8000952:	881c      	ldrh	r4, [r3, #0]
 8000954:	4d41      	ldr	r5, [pc, #260]	; (8000a5c <HAL_PCD_EP_Close+0x194>)
 8000956:	402c      	ands	r4, r5
 8000958:	4d42      	ldr	r5, [pc, #264]	; (8000a64 <HAL_PCD_EP_Close+0x19c>)
 800095a:	432c      	orrs	r4, r5
 800095c:	801c      	strh	r4, [r3, #0]
 800095e:	780b      	ldrb	r3, [r1, #0]
 8000960:	009b      	lsls	r3, r3, #2
 8000962:	18d3      	adds	r3, r2, r3
 8000964:	881c      	ldrh	r4, [r3, #0]
 8000966:	4d3d      	ldr	r5, [pc, #244]	; (8000a5c <HAL_PCD_EP_Close+0x194>)
 8000968:	402c      	ands	r4, r5
 800096a:	4d3e      	ldr	r5, [pc, #248]	; (8000a64 <HAL_PCD_EP_Close+0x19c>)
 800096c:	432c      	orrs	r4, r5
 800096e:	801c      	strh	r4, [r3, #0]
 8000970:	780d      	ldrb	r5, [r1, #0]
 8000972:	4c3d      	ldr	r4, [pc, #244]	; (8000a68 <HAL_PCD_EP_Close+0x1a0>)
 8000974:	00ad      	lsls	r5, r5, #2
 8000976:	1955      	adds	r5, r2, r5
 8000978:	882b      	ldrh	r3, [r5, #0]
 800097a:	4023      	ands	r3, r4
 800097c:	4c3b      	ldr	r4, [pc, #236]	; (8000a6c <HAL_PCD_EP_Close+0x1a4>)
 800097e:	4323      	orrs	r3, r4
 8000980:	b29b      	uxth	r3, r3
 8000982:	802b      	strh	r3, [r5, #0]
 8000984:	780b      	ldrb	r3, [r1, #0]
 8000986:	4933      	ldr	r1, [pc, #204]	; (8000a54 <HAL_PCD_EP_Close+0x18c>)
 8000988:	009b      	lsls	r3, r3, #2
 800098a:	18d2      	adds	r2, r2, r3
 800098c:	8813      	ldrh	r3, [r2, #0]
 800098e:	400b      	ands	r3, r1
 8000990:	431c      	orrs	r4, r3
 8000992:	b2a4      	uxth	r4, r4
 8000994:	8014      	strh	r4, [r2, #0]
 8000996:	e7c1      	b.n	800091c <HAL_PCD_EP_Close+0x54>
 8000998:	23f4      	movs	r3, #244	; 0xf4
 800099a:	00d1      	lsls	r1, r2, #3
 800099c:	1a89      	subs	r1, r1, r2
 800099e:	0089      	lsls	r1, r1, #2
 80009a0:	3128      	adds	r1, #40	; 0x28
 80009a2:	1841      	adds	r1, r0, r1
 80009a4:	0fe4      	lsrs	r4, r4, #31
 80009a6:	700a      	strb	r2, [r1, #0]
 80009a8:	704c      	strb	r4, [r1, #1]
 80009aa:	005b      	lsls	r3, r3, #1
 80009ac:	5cc2      	ldrb	r2, [r0, r3]
 80009ae:	2a01      	cmp	r2, #1
 80009b0:	d19e      	bne.n	80008f0 <HAL_PCD_EP_Close+0x28>
 80009b2:	2002      	movs	r0, #2
 80009b4:	e7b7      	b.n	8000926 <HAL_PCD_EP_Close+0x5e>
 80009b6:	881c      	ldrh	r4, [r3, #0]
 80009b8:	0464      	lsls	r4, r4, #17
 80009ba:	d508      	bpl.n	80009ce <HAL_PCD_EP_Close+0x106>
 80009bc:	881c      	ldrh	r4, [r3, #0]
 80009be:	4d27      	ldr	r5, [pc, #156]	; (8000a5c <HAL_PCD_EP_Close+0x194>)
 80009c0:	402c      	ands	r4, r5
 80009c2:	4d27      	ldr	r5, [pc, #156]	; (8000a60 <HAL_PCD_EP_Close+0x198>)
 80009c4:	432c      	orrs	r4, r5
 80009c6:	801c      	strh	r4, [r3, #0]
 80009c8:	780b      	ldrb	r3, [r1, #0]
 80009ca:	009b      	lsls	r3, r3, #2
 80009cc:	18d3      	adds	r3, r2, r3
 80009ce:	881a      	ldrh	r2, [r3, #0]
 80009d0:	4925      	ldr	r1, [pc, #148]	; (8000a68 <HAL_PCD_EP_Close+0x1a0>)
 80009d2:	400a      	ands	r2, r1
 80009d4:	4920      	ldr	r1, [pc, #128]	; (8000a58 <HAL_PCD_EP_Close+0x190>)
 80009d6:	430a      	orrs	r2, r1
 80009d8:	801a      	strh	r2, [r3, #0]
 80009da:	e79f      	b.n	800091c <HAL_PCD_EP_Close+0x54>
 80009dc:	881c      	ldrh	r4, [r3, #0]
 80009de:	0464      	lsls	r4, r4, #17
 80009e0:	d508      	bpl.n	80009f4 <HAL_PCD_EP_Close+0x12c>
 80009e2:	881c      	ldrh	r4, [r3, #0]
 80009e4:	4d1d      	ldr	r5, [pc, #116]	; (8000a5c <HAL_PCD_EP_Close+0x194>)
 80009e6:	402c      	ands	r4, r5
 80009e8:	4d1d      	ldr	r5, [pc, #116]	; (8000a60 <HAL_PCD_EP_Close+0x198>)
 80009ea:	432c      	orrs	r4, r5
 80009ec:	801c      	strh	r4, [r3, #0]
 80009ee:	780b      	ldrb	r3, [r1, #0]
 80009f0:	009b      	lsls	r3, r3, #2
 80009f2:	18d3      	adds	r3, r2, r3
 80009f4:	881c      	ldrh	r4, [r3, #0]
 80009f6:	0664      	lsls	r4, r4, #25
 80009f8:	d508      	bpl.n	8000a0c <HAL_PCD_EP_Close+0x144>
 80009fa:	881c      	ldrh	r4, [r3, #0]
 80009fc:	4d17      	ldr	r5, [pc, #92]	; (8000a5c <HAL_PCD_EP_Close+0x194>)
 80009fe:	402c      	ands	r4, r5
 8000a00:	4d18      	ldr	r5, [pc, #96]	; (8000a64 <HAL_PCD_EP_Close+0x19c>)
 8000a02:	432c      	orrs	r4, r5
 8000a04:	801c      	strh	r4, [r3, #0]
 8000a06:	780b      	ldrb	r3, [r1, #0]
 8000a08:	009b      	lsls	r3, r3, #2
 8000a0a:	18d3      	adds	r3, r2, r3
 8000a0c:	881c      	ldrh	r4, [r3, #0]
 8000a0e:	4d13      	ldr	r5, [pc, #76]	; (8000a5c <HAL_PCD_EP_Close+0x194>)
 8000a10:	402c      	ands	r4, r5
 8000a12:	4d13      	ldr	r5, [pc, #76]	; (8000a60 <HAL_PCD_EP_Close+0x198>)
 8000a14:	432c      	orrs	r4, r5
 8000a16:	801c      	strh	r4, [r3, #0]
 8000a18:	780d      	ldrb	r5, [r1, #0]
 8000a1a:	4c0e      	ldr	r4, [pc, #56]	; (8000a54 <HAL_PCD_EP_Close+0x18c>)
 8000a1c:	00ad      	lsls	r5, r5, #2
 8000a1e:	1955      	adds	r5, r2, r5
 8000a20:	882b      	ldrh	r3, [r5, #0]
 8000a22:	4023      	ands	r3, r4
 8000a24:	4c11      	ldr	r4, [pc, #68]	; (8000a6c <HAL_PCD_EP_Close+0x1a4>)
 8000a26:	4323      	orrs	r3, r4
 8000a28:	b29b      	uxth	r3, r3
 8000a2a:	802b      	strh	r3, [r5, #0]
 8000a2c:	780b      	ldrb	r3, [r1, #0]
 8000a2e:	490e      	ldr	r1, [pc, #56]	; (8000a68 <HAL_PCD_EP_Close+0x1a0>)
 8000a30:	009b      	lsls	r3, r3, #2
 8000a32:	18d2      	adds	r2, r2, r3
 8000a34:	8813      	ldrh	r3, [r2, #0]
 8000a36:	400b      	ands	r3, r1
 8000a38:	431c      	orrs	r4, r3
 8000a3a:	b2a4      	uxth	r4, r4
 8000a3c:	8014      	strh	r4, [r2, #0]
 8000a3e:	e76d      	b.n	800091c <HAL_PCD_EP_Close+0x54>
 8000a40:	881c      	ldrh	r4, [r3, #0]
 8000a42:	4d06      	ldr	r5, [pc, #24]	; (8000a5c <HAL_PCD_EP_Close+0x194>)
 8000a44:	402c      	ands	r4, r5
 8000a46:	4d07      	ldr	r5, [pc, #28]	; (8000a64 <HAL_PCD_EP_Close+0x19c>)
 8000a48:	432c      	orrs	r4, r5
 8000a4a:	801c      	strh	r4, [r3, #0]
 8000a4c:	780b      	ldrb	r3, [r1, #0]
 8000a4e:	009b      	lsls	r3, r3, #2
 8000a50:	18d3      	adds	r3, r2, r3
 8000a52:	e75d      	b.n	8000910 <HAL_PCD_EP_Close+0x48>
 8000a54:	ffff8fbf 	.word	0xffff8fbf
 8000a58:	00008080 	.word	0x00008080
 8000a5c:	00000f0f 	.word	0x00000f0f
 8000a60:	0000c080 	.word	0x0000c080
 8000a64:	000080c0 	.word	0x000080c0
 8000a68:	ffffbf8f 	.word	0xffffbf8f
 8000a6c:	ffff8080 	.word	0xffff8080

08000a70 <HAL_PCD_EP_Receive>:
 8000a70:	b5f0      	push	{r4, r5, r6, r7, lr}
 8000a72:	247f      	movs	r4, #127	; 0x7f
 8000a74:	4646      	mov	r6, r8
 8000a76:	46d6      	mov	lr, sl
 8000a78:	464f      	mov	r7, r9
 8000a7a:	4021      	ands	r1, r4
 8000a7c:	b5c0      	push	{r6, r7, lr}
 8000a7e:	00ce      	lsls	r6, r1, #3
 8000a80:	1a74      	subs	r4, r6, r1
 8000a82:	00a4      	lsls	r4, r4, #2
 8000a84:	1904      	adds	r4, r0, r4
 8000a86:	0025      	movs	r5, r4
 8000a88:	3519      	adds	r5, #25
 8000a8a:	35ff      	adds	r5, #255	; 0xff
 8000a8c:	602a      	str	r2, [r5, #0]
 8000a8e:	0022      	movs	r2, r4
 8000a90:	321d      	adds	r2, #29
 8000a92:	32ff      	adds	r2, #255	; 0xff
 8000a94:	6013      	str	r3, [r2, #0]
 8000a96:	2200      	movs	r2, #0
 8000a98:	60aa      	str	r2, [r5, #8]
 8000a9a:	3d0f      	subs	r5, #15
 8000a9c:	702a      	strb	r2, [r5, #0]
 8000a9e:	0022      	movs	r2, r4
 8000aa0:	3209      	adds	r2, #9
 8000aa2:	32ff      	adds	r2, #255	; 0xff
 8000aa4:	3415      	adds	r4, #21
 8000aa6:	34ff      	adds	r4, #255	; 0xff
 8000aa8:	7011      	strb	r1, [r2, #0]
 8000aaa:	001d      	movs	r5, r3
 8000aac:	6823      	ldr	r3, [r4, #0]
 8000aae:	2400      	movs	r4, #0
 8000ab0:	429d      	cmp	r5, r3
 8000ab2:	d901      	bls.n	8000ab8 <HAL_PCD_EP_Receive+0x48>
 8000ab4:	1aec      	subs	r4, r5, r3
 8000ab6:	001d      	movs	r5, r3
 8000ab8:	1a72      	subs	r2, r6, r1
 8000aba:	0092      	lsls	r2, r2, #2
 8000abc:	1882      	adds	r2, r0, r2
 8000abe:	0013      	movs	r3, r2
 8000ac0:	331d      	adds	r3, #29
 8000ac2:	33ff      	adds	r3, #255	; 0xff
 8000ac4:	601c      	str	r4, [r3, #0]
 8000ac6:	3b0a      	subs	r3, #10
 8000ac8:	781b      	ldrb	r3, [r3, #0]
 8000aca:	6807      	ldr	r7, [r0, #0]
 8000acc:	2b00      	cmp	r3, #0
 8000ace:	d12d      	bne.n	8000b2c <HAL_PCD_EP_Receive+0xbc>
 8000ad0:	3209      	adds	r2, #9
 8000ad2:	3350      	adds	r3, #80	; 0x50
 8000ad4:	32ff      	adds	r2, #255	; 0xff
 8000ad6:	5afc      	ldrh	r4, [r7, r3]
 8000ad8:	7813      	ldrb	r3, [r2, #0]
 8000ada:	4a70      	ldr	r2, [pc, #448]	; (8000c9c <HAL_PCD_EP_Receive+0x22c>)
 8000adc:	00db      	lsls	r3, r3, #3
 8000ade:	191b      	adds	r3, r3, r4
 8000ae0:	18ba      	adds	r2, r7, r2
 8000ae2:	189b      	adds	r3, r3, r2
 8000ae4:	2d3e      	cmp	r5, #62	; 0x3e
 8000ae6:	d800      	bhi.n	8000aea <HAL_PCD_EP_Receive+0x7a>
 8000ae8:	e086      	b.n	8000bf8 <HAL_PCD_EP_Receive+0x188>
 8000aea:	096a      	lsrs	r2, r5, #5
 8000aec:	b292      	uxth	r2, r2
 8000aee:	06ec      	lsls	r4, r5, #27
 8000af0:	d101      	bne.n	8000af6 <HAL_PCD_EP_Receive+0x86>
 8000af2:	3a01      	subs	r2, #1
 8000af4:	b292      	uxth	r2, r2
 8000af6:	1a71      	subs	r1, r6, r1
 8000af8:	4c69      	ldr	r4, [pc, #420]	; (8000ca0 <HAL_PCD_EP_Receive+0x230>)
 8000afa:	0089      	lsls	r1, r1, #2
 8000afc:	0292      	lsls	r2, r2, #10
 8000afe:	1840      	adds	r0, r0, r1
 8000b00:	4322      	orrs	r2, r4
 8000b02:	3009      	adds	r0, #9
 8000b04:	801a      	strh	r2, [r3, #0]
 8000b06:	30ff      	adds	r0, #255	; 0xff
 8000b08:	7804      	ldrb	r4, [r0, #0]
 8000b0a:	00a3      	lsls	r3, r4, #2
 8000b0c:	18fb      	adds	r3, r7, r3
 8000b0e:	881a      	ldrh	r2, [r3, #0]
 8000b10:	4964      	ldr	r1, [pc, #400]	; (8000ca4 <HAL_PCD_EP_Receive+0x234>)
 8000b12:	2000      	movs	r0, #0
 8000b14:	4011      	ands	r1, r2
 8000b16:	22c0      	movs	r2, #192	; 0xc0
 8000b18:	0192      	lsls	r2, r2, #6
 8000b1a:	404a      	eors	r2, r1
 8000b1c:	4962      	ldr	r1, [pc, #392]	; (8000ca8 <HAL_PCD_EP_Receive+0x238>)
 8000b1e:	430a      	orrs	r2, r1
 8000b20:	801a      	strh	r2, [r3, #0]
 8000b22:	bc1c      	pop	{r2, r3, r4}
 8000b24:	4690      	mov	r8, r2
 8000b26:	4699      	mov	r9, r3
 8000b28:	46a2      	mov	sl, r4
 8000b2a:	bdf0      	pop	{r4, r5, r6, r7, pc}
 8000b2c:	230a      	movs	r3, #10
 8000b2e:	2484      	movs	r4, #132	; 0x84
 8000b30:	33ff      	adds	r3, #255	; 0xff
 8000b32:	469c      	mov	ip, r3
 8000b34:	0064      	lsls	r4, r4, #1
 8000b36:	46a0      	mov	r8, r4
 8000b38:	4494      	add	ip, r2
 8000b3a:	4663      	mov	r3, ip
 8000b3c:	4490      	add	r8, r2
 8000b3e:	4642      	mov	r2, r8
 8000b40:	781b      	ldrb	r3, [r3, #0]
 8000b42:	7814      	ldrb	r4, [r2, #0]
 8000b44:	2b00      	cmp	r3, #0
 8000b46:	d136      	bne.n	8000bb6 <HAL_PCD_EP_Receive+0x146>
 8000b48:	3350      	adds	r3, #80	; 0x50
 8000b4a:	5afb      	ldrh	r3, [r7, r3]
 8000b4c:	00e4      	lsls	r4, r4, #3
 8000b4e:	18e4      	adds	r4, r4, r3
 8000b50:	46a1      	mov	r9, r4
 8000b52:	4b56      	ldr	r3, [pc, #344]	; (8000cac <HAL_PCD_EP_Receive+0x23c>)
 8000b54:	18fb      	adds	r3, r7, r3
 8000b56:	4499      	add	r9, r3
 8000b58:	2d3e      	cmp	r5, #62	; 0x3e
 8000b5a:	d95c      	bls.n	8000c16 <HAL_PCD_EP_Receive+0x1a6>
 8000b5c:	221f      	movs	r2, #31
 8000b5e:	402a      	ands	r2, r5
 8000b60:	4694      	mov	ip, r2
 8000b62:	4664      	mov	r4, ip
 8000b64:	096b      	lsrs	r3, r5, #5
 8000b66:	b29b      	uxth	r3, r3
 8000b68:	001a      	movs	r2, r3
 8000b6a:	2c00      	cmp	r4, #0
 8000b6c:	d101      	bne.n	8000b72 <HAL_PCD_EP_Receive+0x102>
 8000b6e:	1e5a      	subs	r2, r3, #1
 8000b70:	b292      	uxth	r2, r2
 8000b72:	4c4b      	ldr	r4, [pc, #300]	; (8000ca0 <HAL_PCD_EP_Receive+0x230>)
 8000b74:	0292      	lsls	r2, r2, #10
 8000b76:	4322      	orrs	r2, r4
 8000b78:	464c      	mov	r4, r9
 8000b7a:	8022      	strh	r2, [r4, #0]
 8000b7c:	1a74      	subs	r4, r6, r1
 8000b7e:	00a4      	lsls	r4, r4, #2
 8000b80:	1904      	adds	r4, r0, r4
 8000b82:	0022      	movs	r2, r4
 8000b84:	320a      	adds	r2, #10
 8000b86:	32ff      	adds	r2, #255	; 0xff
 8000b88:	7812      	ldrb	r2, [r2, #0]
 8000b8a:	2a00      	cmp	r2, #0
 8000b8c:	d16c      	bne.n	8000c68 <HAL_PCD_EP_Receive+0x1f8>
 8000b8e:	2250      	movs	r2, #80	; 0x50
 8000b90:	3409      	adds	r4, #9
 8000b92:	34ff      	adds	r4, #255	; 0xff
 8000b94:	5abd      	ldrh	r5, [r7, r2]
 8000b96:	7822      	ldrb	r2, [r4, #0]
 8000b98:	4c40      	ldr	r4, [pc, #256]	; (8000c9c <HAL_PCD_EP_Receive+0x22c>)
 8000b9a:	00d2      	lsls	r2, r2, #3
 8000b9c:	1952      	adds	r2, r2, r5
 8000b9e:	193c      	adds	r4, r7, r4
 8000ba0:	1912      	adds	r2, r2, r4
 8000ba2:	4664      	mov	r4, ip
 8000ba4:	2c00      	cmp	r4, #0
 8000ba6:	d101      	bne.n	8000bac <HAL_PCD_EP_Receive+0x13c>
 8000ba8:	3b01      	subs	r3, #1
 8000baa:	b29b      	uxth	r3, r3
 8000bac:	4c3c      	ldr	r4, [pc, #240]	; (8000ca0 <HAL_PCD_EP_Receive+0x230>)
 8000bae:	029b      	lsls	r3, r3, #10
 8000bb0:	4323      	orrs	r3, r4
 8000bb2:	8013      	strh	r3, [r2, #0]
 8000bb4:	e028      	b.n	8000c08 <HAL_PCD_EP_Receive+0x198>
 8000bb6:	2b01      	cmp	r3, #1
 8000bb8:	d1a7      	bne.n	8000b0a <HAL_PCD_EP_Receive+0x9a>
 8000bba:	2250      	movs	r2, #80	; 0x50
 8000bbc:	00e4      	lsls	r4, r4, #3
 8000bbe:	4691      	mov	r9, r2
 8000bc0:	5aba      	ldrh	r2, [r7, r2]
 8000bc2:	19e4      	adds	r4, r4, r7
 8000bc4:	18a4      	adds	r4, r4, r2
 8000bc6:	4a39      	ldr	r2, [pc, #228]	; (8000cac <HAL_PCD_EP_Receive+0x23c>)
 8000bc8:	4692      	mov	sl, r2
 8000bca:	4662      	mov	r2, ip
 8000bcc:	4454      	add	r4, sl
 8000bce:	8025      	strh	r5, [r4, #0]
 8000bd0:	7812      	ldrb	r2, [r2, #0]
 8000bd2:	2a00      	cmp	r2, #0
 8000bd4:	d148      	bne.n	8000c68 <HAL_PCD_EP_Receive+0x1f8>
 8000bd6:	464a      	mov	r2, r9
 8000bd8:	5abc      	ldrh	r4, [r7, r2]
 8000bda:	4642      	mov	r2, r8
 8000bdc:	7812      	ldrb	r2, [r2, #0]
 8000bde:	00d2      	lsls	r2, r2, #3
 8000be0:	1912      	adds	r2, r2, r4
 8000be2:	4c2e      	ldr	r4, [pc, #184]	; (8000c9c <HAL_PCD_EP_Receive+0x22c>)
 8000be4:	193c      	adds	r4, r7, r4
 8000be6:	1912      	adds	r2, r2, r4
 8000be8:	2d3e      	cmp	r5, #62	; 0x3e
 8000bea:	d951      	bls.n	8000c90 <HAL_PCD_EP_Receive+0x220>
 8000bec:	331e      	adds	r3, #30
 8000bee:	402b      	ands	r3, r5
 8000bf0:	096d      	lsrs	r5, r5, #5
 8000bf2:	469c      	mov	ip, r3
 8000bf4:	b2ab      	uxth	r3, r5
 8000bf6:	e7d4      	b.n	8000ba2 <HAL_PCD_EP_Receive+0x132>
 8000bf8:	086a      	lsrs	r2, r5, #1
 8000bfa:	b292      	uxth	r2, r2
 8000bfc:	07ec      	lsls	r4, r5, #31
 8000bfe:	d501      	bpl.n	8000c04 <HAL_PCD_EP_Receive+0x194>
 8000c00:	3201      	adds	r2, #1
 8000c02:	b292      	uxth	r2, r2
 8000c04:	0292      	lsls	r2, r2, #10
 8000c06:	801a      	strh	r2, [r3, #0]
 8000c08:	1a71      	subs	r1, r6, r1
 8000c0a:	0089      	lsls	r1, r1, #2
 8000c0c:	1840      	adds	r0, r0, r1
 8000c0e:	3009      	adds	r0, #9
 8000c10:	30ff      	adds	r0, #255	; 0xff
 8000c12:	7804      	ldrb	r4, [r0, #0]
 8000c14:	e779      	b.n	8000b0a <HAL_PCD_EP_Receive+0x9a>
 8000c16:	086b      	lsrs	r3, r5, #1
 8000c18:	b29b      	uxth	r3, r3
 8000c1a:	469c      	mov	ip, r3
 8000c1c:	2301      	movs	r3, #1
 8000c1e:	4662      	mov	r2, ip
 8000c20:	402b      	ands	r3, r5
 8000c22:	d001      	beq.n	8000c28 <HAL_PCD_EP_Receive+0x1b8>
 8000c24:	3201      	adds	r2, #1
 8000c26:	b292      	uxth	r2, r2
 8000c28:	464c      	mov	r4, r9
 8000c2a:	0292      	lsls	r2, r2, #10
 8000c2c:	8022      	strh	r2, [r4, #0]
 8000c2e:	1a74      	subs	r4, r6, r1
 8000c30:	00a4      	lsls	r4, r4, #2
 8000c32:	1904      	adds	r4, r0, r4
 8000c34:	0022      	movs	r2, r4
 8000c36:	320a      	adds	r2, #10
 8000c38:	32ff      	adds	r2, #255	; 0xff
 8000c3a:	7812      	ldrb	r2, [r2, #0]
 8000c3c:	2a00      	cmp	r2, #0
 8000c3e:	d113      	bne.n	8000c68 <HAL_PCD_EP_Receive+0x1f8>
 8000c40:	2250      	movs	r2, #80	; 0x50
 8000c42:	3409      	adds	r4, #9
 8000c44:	34ff      	adds	r4, #255	; 0xff
 8000c46:	5abd      	ldrh	r5, [r7, r2]
 8000c48:	7822      	ldrb	r2, [r4, #0]
 8000c4a:	4c14      	ldr	r4, [pc, #80]	; (8000c9c <HAL_PCD_EP_Receive+0x22c>)
 8000c4c:	00d2      	lsls	r2, r2, #3
 8000c4e:	1952      	adds	r2, r2, r5
 8000c50:	193c      	adds	r4, r7, r4
 8000c52:	1912      	adds	r2, r2, r4
 8000c54:	2b00      	cmp	r3, #0
 8000c56:	d003      	beq.n	8000c60 <HAL_PCD_EP_Receive+0x1f0>
 8000c58:	4665      	mov	r5, ip
 8000c5a:	3501      	adds	r5, #1
 8000c5c:	b2ab      	uxth	r3, r5
 8000c5e:	469c      	mov	ip, r3
 8000c60:	4663      	mov	r3, ip
 8000c62:	029d      	lsls	r5, r3, #10
 8000c64:	8015      	strh	r5, [r2, #0]
 8000c66:	e7cf      	b.n	8000c08 <HAL_PCD_EP_Receive+0x198>
 8000c68:	1a71      	subs	r1, r6, r1
 8000c6a:	0089      	lsls	r1, r1, #2
 8000c6c:	1840      	adds	r0, r0, r1
 8000c6e:	3009      	adds	r0, #9
 8000c70:	30ff      	adds	r0, #255	; 0xff
 8000c72:	7804      	ldrb	r4, [r0, #0]
 8000c74:	2a01      	cmp	r2, #1
 8000c76:	d000      	beq.n	8000c7a <HAL_PCD_EP_Receive+0x20a>
 8000c78:	e747      	b.n	8000b0a <HAL_PCD_EP_Receive+0x9a>
 8000c7a:	2350      	movs	r3, #80	; 0x50
 8000c7c:	5afa      	ldrh	r2, [r7, r3]
 8000c7e:	00e3      	lsls	r3, r4, #3
 8000c80:	18fb      	adds	r3, r7, r3
 8000c82:	189b      	adds	r3, r3, r2
 8000c84:	4a05      	ldr	r2, [pc, #20]	; (8000c9c <HAL_PCD_EP_Receive+0x22c>)
 8000c86:	4694      	mov	ip, r2
 8000c88:	4463      	add	r3, ip
 8000c8a:	801d      	strh	r5, [r3, #0]
 8000c8c:	7804      	ldrb	r4, [r0, #0]
 8000c8e:	e73c      	b.n	8000b0a <HAL_PCD_EP_Receive+0x9a>
 8000c90:	402b      	ands	r3, r5
 8000c92:	086d      	lsrs	r5, r5, #1
 8000c94:	b2ac      	uxth	r4, r5
 8000c96:	46a4      	mov	ip, r4
 8000c98:	e7dc      	b.n	8000c54 <HAL_PCD_EP_Receive+0x1e4>
 8000c9a:	46c0      	nop			; (mov r8, r8)
 8000c9c:	00000406 	.word	0x00000406
 8000ca0:	ffff8000 	.word	0xffff8000
 8000ca4:	ffffbf8f 	.word	0xffffbf8f
 8000ca8:	00008080 	.word	0x00008080
 8000cac:	00000402 	.word	0x00000402

08000cb0 <HAL_PCD_EP_Transmit>:
 8000cb0:	b5f0      	push	{r4, r5, r6, r7, lr}
 8000cb2:	247f      	movs	r4, #127	; 0x7f
 8000cb4:	46de      	mov	lr, fp
 8000cb6:	4657      	mov	r7, sl
 8000cb8:	464e      	mov	r6, r9
 8000cba:	4645      	mov	r5, r8
 8000cbc:	4021      	ands	r1, r4
 8000cbe:	00cc      	lsls	r4, r1, #3
 8000cc0:	46a3      	mov	fp, r4
 8000cc2:	1a64      	subs	r4, r4, r1
 8000cc4:	00a4      	lsls	r4, r4, #2
 8000cc6:	1904      	adds	r4, r0, r4
 8000cc8:	b5e0      	push	{r5, r6, r7, lr}
 8000cca:	63a2      	str	r2, [r4, #56]	; 0x38
 8000ccc:	2200      	movs	r2, #0
 8000cce:	6422      	str	r2, [r4, #64]	; 0x40
 8000cd0:	0022      	movs	r2, r4
 8000cd2:	2601      	movs	r6, #1
 8000cd4:	3229      	adds	r2, #41	; 0x29
 8000cd6:	63e3      	str	r3, [r4, #60]	; 0x3c
 8000cd8:	3a01      	subs	r2, #1
 8000cda:	7056      	strb	r6, [r2, #1]
 8000cdc:	7011      	strb	r1, [r2, #0]
 8000cde:	001f      	movs	r7, r3
 8000ce0:	6b63      	ldr	r3, [r4, #52]	; 0x34
 8000ce2:	b083      	sub	sp, #12
 8000ce4:	2400      	movs	r4, #0
 8000ce6:	429f      	cmp	r7, r3
 8000ce8:	d901      	bls.n	8000cee <HAL_PCD_EP_Transmit+0x3e>
 8000cea:	1afc      	subs	r4, r7, r3
 8000cec:	001f      	movs	r7, r3
 8000cee:	465b      	mov	r3, fp
 8000cf0:	1a5a      	subs	r2, r3, r1
 8000cf2:	043b      	lsls	r3, r7, #16
 8000cf4:	0c1b      	lsrs	r3, r3, #16
 8000cf6:	3301      	adds	r3, #1
 8000cf8:	085d      	lsrs	r5, r3, #1
 8000cfa:	46ac      	mov	ip, r5
 8000cfc:	2580      	movs	r5, #128	; 0x80
 8000cfe:	0092      	lsls	r2, r2, #2
 8000d00:	1882      	adds	r2, r0, r2
 8000d02:	0016      	movs	r6, r2
 8000d04:	00ed      	lsls	r5, r5, #3
 8000d06:	46aa      	mov	sl, r5
 8000d08:	63d4      	str	r4, [r2, #60]	; 0x3c
 8000d0a:	3632      	adds	r6, #50	; 0x32
 8000d0c:	6804      	ldr	r4, [r0, #0]
 8000d0e:	7836      	ldrb	r6, [r6, #0]
 8000d10:	44a2      	add	sl, r4
 8000d12:	2e00      	cmp	r6, #0
 8000d14:	d160      	bne.n	8000dd8 <HAL_PCD_EP_Transmit+0x128>
 8000d16:	6b95      	ldr	r5, [r2, #56]	; 0x38
 8000d18:	46a8      	mov	r8, r5
 8000d1a:	b2bd      	uxth	r5, r7
 8000d1c:	8d97      	ldrh	r7, [r2, #44]	; 0x2c
 8000d1e:	4662      	mov	r2, ip
 8000d20:	46a9      	mov	r9, r5
 8000d22:	4457      	add	r7, sl
 8000d24:	2a00      	cmp	r2, #0
 8000d26:	d034      	beq.n	8000d92 <HAL_PCD_EP_Transmit+0xe2>
 8000d28:	4642      	mov	r2, r8
 8000d2a:	0035      	movs	r5, r6
 8000d2c:	3204      	adds	r2, #4
 8000d2e:	4297      	cmp	r7, r2
 8000d30:	4175      	adcs	r5, r6
 8000d32:	9501      	str	r5, [sp, #4]
 8000d34:	1d3d      	adds	r5, r7, #4
 8000d36:	46aa      	mov	sl, r5
 8000d38:	4645      	mov	r5, r8
 8000d3a:	4652      	mov	r2, sl
 8000d3c:	4295      	cmp	r5, r2
 8000d3e:	4176      	adcs	r6, r6
 8000d40:	9a01      	ldr	r2, [sp, #4]
 8000d42:	4316      	orrs	r6, r2
 8000d44:	4642      	mov	r2, r8
 8000d46:	433a      	orrs	r2, r7
 8000d48:	4692      	mov	sl, r2
 8000d4a:	2203      	movs	r2, #3
 8000d4c:	4655      	mov	r5, sl
 8000d4e:	402a      	ands	r2, r5
 8000d50:	4255      	negs	r5, r2
 8000d52:	4155      	adcs	r5, r2
 8000d54:	4235      	tst	r5, r6
 8000d56:	d100      	bne.n	8000d5a <HAL_PCD_EP_Transmit+0xaa>
 8000d58:	e0f4      	b.n	8000f44 <HAL_PCD_EP_Transmit+0x294>
 8000d5a:	4662      	mov	r2, ip
 8000d5c:	2a0c      	cmp	r2, #12
 8000d5e:	d800      	bhi.n	8000d62 <HAL_PCD_EP_Transmit+0xb2>
 8000d60:	e0f0      	b.n	8000f44 <HAL_PCD_EP_Transmit+0x294>
 8000d62:	4645      	mov	r5, r8
 8000d64:	1bed      	subs	r5, r5, r7
 8000d66:	003e      	movs	r6, r7
 8000d68:	2200      	movs	r2, #0
 8000d6a:	46aa      	mov	sl, r5
 8000d6c:	089b      	lsrs	r3, r3, #2
 8000d6e:	4655      	mov	r5, sl
 8000d70:	5975      	ldr	r5, [r6, r5]
 8000d72:	3201      	adds	r2, #1
 8000d74:	c620      	stmia	r6!, {r5}
 8000d76:	429a      	cmp	r2, r3
 8000d78:	d3f9      	bcc.n	8000d6e <HAL_PCD_EP_Transmit+0xbe>
 8000d7a:	4645      	mov	r5, r8
 8000d7c:	005a      	lsls	r2, r3, #1
 8000d7e:	009b      	lsls	r3, r3, #2
 8000d80:	18ee      	adds	r6, r5, r3
 8000d82:	18fb      	adds	r3, r7, r3
 8000d84:	4562      	cmp	r2, ip
 8000d86:	d004      	beq.n	8000d92 <HAL_PCD_EP_Transmit+0xe2>
 8000d88:	7872      	ldrb	r2, [r6, #1]
 8000d8a:	7837      	ldrb	r7, [r6, #0]
 8000d8c:	0212      	lsls	r2, r2, #8
 8000d8e:	433a      	orrs	r2, r7
 8000d90:	801a      	strh	r2, [r3, #0]
 8000d92:	2350      	movs	r3, #80	; 0x50
 8000d94:	5ae2      	ldrh	r2, [r4, r3]
 8000d96:	465b      	mov	r3, fp
 8000d98:	1a59      	subs	r1, r3, r1
 8000d9a:	0089      	lsls	r1, r1, #2
 8000d9c:	1840      	adds	r0, r0, r1
 8000d9e:	3028      	adds	r0, #40	; 0x28
 8000da0:	7803      	ldrb	r3, [r0, #0]
 8000da2:	00db      	lsls	r3, r3, #3
 8000da4:	189b      	adds	r3, r3, r2
 8000da6:	4a7f      	ldr	r2, [pc, #508]	; (8000fa4 <HAL_PCD_EP_Transmit+0x2f4>)
 8000da8:	18e3      	adds	r3, r4, r3
 8000daa:	4694      	mov	ip, r2
 8000dac:	464a      	mov	r2, r9
 8000dae:	4463      	add	r3, ip
 8000db0:	801a      	strh	r2, [r3, #0]
 8000db2:	7803      	ldrb	r3, [r0, #0]
 8000db4:	009b      	lsls	r3, r3, #2
 8000db6:	18e3      	adds	r3, r4, r3
 8000db8:	881a      	ldrh	r2, [r3, #0]
 8000dba:	497b      	ldr	r1, [pc, #492]	; (8000fa8 <HAL_PCD_EP_Transmit+0x2f8>)
 8000dbc:	2000      	movs	r0, #0
 8000dbe:	400a      	ands	r2, r1
 8000dc0:	2130      	movs	r1, #48	; 0x30
 8000dc2:	404a      	eors	r2, r1
 8000dc4:	4979      	ldr	r1, [pc, #484]	; (8000fac <HAL_PCD_EP_Transmit+0x2fc>)
 8000dc6:	430a      	orrs	r2, r1
 8000dc8:	801a      	strh	r2, [r3, #0]
 8000dca:	b003      	add	sp, #12
 8000dcc:	bc3c      	pop	{r2, r3, r4, r5}
 8000dce:	4690      	mov	r8, r2
 8000dd0:	4699      	mov	r9, r3
 8000dd2:	46a2      	mov	sl, r4
 8000dd4:	46ab      	mov	fp, r5
 8000dd6:	bdf0      	pop	{r4, r5, r6, r7, pc}
 8000dd8:	0016      	movs	r6, r2
 8000dda:	3628      	adds	r6, #40	; 0x28
 8000ddc:	7836      	ldrb	r6, [r6, #0]
 8000dde:	3229      	adds	r2, #41	; 0x29
 8000de0:	00b5      	lsls	r5, r6, #2
 8000de2:	46a8      	mov	r8, r5
 8000de4:	44a0      	add	r8, r4
 8000de6:	4645      	mov	r5, r8
 8000de8:	882d      	ldrh	r5, [r5, #0]
 8000dea:	7812      	ldrb	r2, [r2, #0]
 8000dec:	066d      	lsls	r5, r5, #25
 8000dee:	d51c      	bpl.n	8000e2a <HAL_PCD_EP_Transmit+0x17a>
 8000df0:	2a00      	cmp	r2, #0
 8000df2:	d000      	beq.n	8000df6 <HAL_PCD_EP_Transmit+0x146>
 8000df4:	e087      	b.n	8000f06 <HAL_PCD_EP_Transmit+0x256>
 8000df6:	3250      	adds	r2, #80	; 0x50
 8000df8:	5aa2      	ldrh	r2, [r4, r2]
 8000dfa:	00f6      	lsls	r6, r6, #3
 8000dfc:	18b6      	adds	r6, r6, r2
 8000dfe:	4a6c      	ldr	r2, [pc, #432]	; (8000fb0 <HAL_PCD_EP_Transmit+0x300>)
 8000e00:	18a2      	adds	r2, r4, r2
 8000e02:	18b6      	adds	r6, r6, r2
 8000e04:	2f3e      	cmp	r7, #62	; 0x3e
 8000e06:	d800      	bhi.n	8000e0a <HAL_PCD_EP_Transmit+0x15a>
 8000e08:	e0c2      	b.n	8000f90 <HAL_PCD_EP_Transmit+0x2e0>
 8000e0a:	097a      	lsrs	r2, r7, #5
 8000e0c:	b292      	uxth	r2, r2
 8000e0e:	06fd      	lsls	r5, r7, #27
 8000e10:	d101      	bne.n	8000e16 <HAL_PCD_EP_Transmit+0x166>
 8000e12:	3a01      	subs	r2, #1
 8000e14:	b292      	uxth	r2, r2
 8000e16:	4f67      	ldr	r7, [pc, #412]	; (8000fb4 <HAL_PCD_EP_Transmit+0x304>)
 8000e18:	0292      	lsls	r2, r2, #10
 8000e1a:	433a      	orrs	r2, r7
 8000e1c:	8032      	strh	r2, [r6, #0]
 8000e1e:	465a      	mov	r2, fp
 8000e20:	1a52      	subs	r2, r2, r1
 8000e22:	0092      	lsls	r2, r2, #2
 8000e24:	1882      	adds	r2, r0, r2
 8000e26:	8e12      	ldrh	r2, [r2, #48]	; 0x30
 8000e28:	e01a      	b.n	8000e60 <HAL_PCD_EP_Transmit+0x1b0>
 8000e2a:	2a00      	cmp	r2, #0
 8000e2c:	d178      	bne.n	8000f20 <HAL_PCD_EP_Transmit+0x270>
 8000e2e:	3250      	adds	r2, #80	; 0x50
 8000e30:	5aa2      	ldrh	r2, [r4, r2]
 8000e32:	00f6      	lsls	r6, r6, #3
 8000e34:	18b6      	adds	r6, r6, r2
 8000e36:	4a5b      	ldr	r2, [pc, #364]	; (8000fa4 <HAL_PCD_EP_Transmit+0x2f4>)
 8000e38:	18a2      	adds	r2, r4, r2
 8000e3a:	18b6      	adds	r6, r6, r2
 8000e3c:	2f3e      	cmp	r7, #62	; 0x3e
 8000e3e:	d800      	bhi.n	8000e42 <HAL_PCD_EP_Transmit+0x192>
 8000e40:	e09d      	b.n	8000f7e <HAL_PCD_EP_Transmit+0x2ce>
 8000e42:	097a      	lsrs	r2, r7, #5
 8000e44:	b292      	uxth	r2, r2
 8000e46:	06fd      	lsls	r5, r7, #27
 8000e48:	d101      	bne.n	8000e4e <HAL_PCD_EP_Transmit+0x19e>
 8000e4a:	3a01      	subs	r2, #1
 8000e4c:	b292      	uxth	r2, r2
 8000e4e:	4f59      	ldr	r7, [pc, #356]	; (8000fb4 <HAL_PCD_EP_Transmit+0x304>)
 8000e50:	0292      	lsls	r2, r2, #10
 8000e52:	433a      	orrs	r2, r7
 8000e54:	8032      	strh	r2, [r6, #0]
 8000e56:	465a      	mov	r2, fp
 8000e58:	1a52      	subs	r2, r2, r1
 8000e5a:	0092      	lsls	r2, r2, #2
 8000e5c:	1882      	adds	r2, r0, r2
 8000e5e:	8dd2      	ldrh	r2, [r2, #46]	; 0x2e
 8000e60:	465d      	mov	r5, fp
 8000e62:	4492      	add	sl, r2
 8000e64:	4662      	mov	r2, ip
 8000e66:	1a6e      	subs	r6, r5, r1
 8000e68:	00b6      	lsls	r6, r6, #2
 8000e6a:	1986      	adds	r6, r0, r6
 8000e6c:	6bb6      	ldr	r6, [r6, #56]	; 0x38
 8000e6e:	2a00      	cmp	r2, #0
 8000e70:	d02f      	beq.n	8000ed2 <HAL_PCD_EP_Transmit+0x222>
 8000e72:	4652      	mov	r2, sl
 8000e74:	1d17      	adds	r7, r2, #4
 8000e76:	2200      	movs	r2, #0
 8000e78:	0015      	movs	r5, r2
 8000e7a:	42be      	cmp	r6, r7
 8000e7c:	4155      	adcs	r5, r2
 8000e7e:	46a9      	mov	r9, r5
 8000e80:	1d35      	adds	r5, r6, #4
 8000e82:	46a8      	mov	r8, r5
 8000e84:	4655      	mov	r5, sl
 8000e86:	4647      	mov	r7, r8
 8000e88:	42bd      	cmp	r5, r7
 8000e8a:	4152      	adcs	r2, r2
 8000e8c:	270c      	movs	r7, #12
 8000e8e:	464d      	mov	r5, r9
 8000e90:	4567      	cmp	r7, ip
 8000e92:	41bf      	sbcs	r7, r7
 8000e94:	432a      	orrs	r2, r5
 8000e96:	427f      	negs	r7, r7
 8000e98:	4217      	tst	r7, r2
 8000e9a:	d062      	beq.n	8000f62 <HAL_PCD_EP_Transmit+0x2b2>
 8000e9c:	4652      	mov	r2, sl
 8000e9e:	4332      	orrs	r2, r6
 8000ea0:	0792      	lsls	r2, r2, #30
 8000ea2:	d15e      	bne.n	8000f62 <HAL_PCD_EP_Transmit+0x2b2>
 8000ea4:	4652      	mov	r2, sl
 8000ea6:	1ab5      	subs	r5, r6, r2
 8000ea8:	2700      	movs	r7, #0
 8000eaa:	46a8      	mov	r8, r5
 8000eac:	089b      	lsrs	r3, r3, #2
 8000eae:	4645      	mov	r5, r8
 8000eb0:	5955      	ldr	r5, [r2, r5]
 8000eb2:	3701      	adds	r7, #1
 8000eb4:	c220      	stmia	r2!, {r5}
 8000eb6:	42bb      	cmp	r3, r7
 8000eb8:	d8f9      	bhi.n	8000eae <HAL_PCD_EP_Transmit+0x1fe>
 8000eba:	005f      	lsls	r7, r3, #1
 8000ebc:	009b      	lsls	r3, r3, #2
 8000ebe:	18f6      	adds	r6, r6, r3
 8000ec0:	4453      	add	r3, sl
 8000ec2:	001a      	movs	r2, r3
 8000ec4:	4567      	cmp	r7, ip
 8000ec6:	d004      	beq.n	8000ed2 <HAL_PCD_EP_Transmit+0x222>
 8000ec8:	7873      	ldrb	r3, [r6, #1]
 8000eca:	7837      	ldrb	r7, [r6, #0]
 8000ecc:	021b      	lsls	r3, r3, #8
 8000ece:	433b      	orrs	r3, r7
 8000ed0:	8013      	strh	r3, [r2, #0]
 8000ed2:	465b      	mov	r3, fp
 8000ed4:	1a59      	subs	r1, r3, r1
 8000ed6:	0089      	lsls	r1, r1, #2
 8000ed8:	1840      	adds	r0, r0, r1
 8000eda:	0003      	movs	r3, r0
 8000edc:	3028      	adds	r0, #40	; 0x28
 8000ede:	3329      	adds	r3, #41	; 0x29
 8000ee0:	781a      	ldrb	r2, [r3, #0]
 8000ee2:	7803      	ldrb	r3, [r0, #0]
 8000ee4:	009b      	lsls	r3, r3, #2
 8000ee6:	18e3      	adds	r3, r4, r3
 8000ee8:	2a00      	cmp	r2, #0
 8000eea:	d026      	beq.n	8000f3a <HAL_PCD_EP_Transmit+0x28a>
 8000eec:	2a01      	cmp	r2, #1
 8000eee:	d000      	beq.n	8000ef2 <HAL_PCD_EP_Transmit+0x242>
 8000ef0:	e762      	b.n	8000db8 <HAL_PCD_EP_Transmit+0x108>
 8000ef2:	4931      	ldr	r1, [pc, #196]	; (8000fb8 <HAL_PCD_EP_Transmit+0x308>)
 8000ef4:	881a      	ldrh	r2, [r3, #0]
 8000ef6:	400a      	ands	r2, r1
 8000ef8:	4930      	ldr	r1, [pc, #192]	; (8000fbc <HAL_PCD_EP_Transmit+0x30c>)
 8000efa:	430a      	orrs	r2, r1
 8000efc:	801a      	strh	r2, [r3, #0]
 8000efe:	7803      	ldrb	r3, [r0, #0]
 8000f00:	009b      	lsls	r3, r3, #2
 8000f02:	18e3      	adds	r3, r4, r3
 8000f04:	e758      	b.n	8000db8 <HAL_PCD_EP_Transmit+0x108>
 8000f06:	2a01      	cmp	r2, #1
 8000f08:	d189      	bne.n	8000e1e <HAL_PCD_EP_Transmit+0x16e>
 8000f0a:	324f      	adds	r2, #79	; 0x4f
 8000f0c:	5aa2      	ldrh	r2, [r4, r2]
 8000f0e:	4d28      	ldr	r5, [pc, #160]	; (8000fb0 <HAL_PCD_EP_Transmit+0x300>)
 8000f10:	4690      	mov	r8, r2
 8000f12:	00f2      	lsls	r2, r6, #3
 8000f14:	4442      	add	r2, r8
 8000f16:	46a8      	mov	r8, r5
 8000f18:	1912      	adds	r2, r2, r4
 8000f1a:	4442      	add	r2, r8
 8000f1c:	8017      	strh	r7, [r2, #0]
 8000f1e:	e77e      	b.n	8000e1e <HAL_PCD_EP_Transmit+0x16e>
 8000f20:	2a01      	cmp	r2, #1
 8000f22:	d198      	bne.n	8000e56 <HAL_PCD_EP_Transmit+0x1a6>
 8000f24:	324f      	adds	r2, #79	; 0x4f
 8000f26:	5aa2      	ldrh	r2, [r4, r2]
 8000f28:	4d1e      	ldr	r5, [pc, #120]	; (8000fa4 <HAL_PCD_EP_Transmit+0x2f4>)
 8000f2a:	4690      	mov	r8, r2
 8000f2c:	00f2      	lsls	r2, r6, #3
 8000f2e:	4442      	add	r2, r8
 8000f30:	46a8      	mov	r8, r5
 8000f32:	1912      	adds	r2, r2, r4
 8000f34:	4442      	add	r2, r8
 8000f36:	8017      	strh	r7, [r2, #0]
 8000f38:	e78d      	b.n	8000e56 <HAL_PCD_EP_Transmit+0x1a6>
 8000f3a:	491f      	ldr	r1, [pc, #124]	; (8000fb8 <HAL_PCD_EP_Transmit+0x308>)
 8000f3c:	881a      	ldrh	r2, [r3, #0]
 8000f3e:	400a      	ands	r2, r1
 8000f40:	491f      	ldr	r1, [pc, #124]	; (8000fc0 <HAL_PCD_EP_Transmit+0x310>)
 8000f42:	e7da      	b.n	8000efa <HAL_PCD_EP_Transmit+0x24a>
 8000f44:	4663      	mov	r3, ip
 8000f46:	005b      	lsls	r3, r3, #1
 8000f48:	469c      	mov	ip, r3
 8000f4a:	4646      	mov	r6, r8
 8000f4c:	44c4      	add	ip, r8
 8000f4e:	1bbb      	subs	r3, r7, r6
 8000f50:	7872      	ldrb	r2, [r6, #1]
 8000f52:	7837      	ldrb	r7, [r6, #0]
 8000f54:	0212      	lsls	r2, r2, #8
 8000f56:	433a      	orrs	r2, r7
 8000f58:	52f2      	strh	r2, [r6, r3]
 8000f5a:	3602      	adds	r6, #2
 8000f5c:	4566      	cmp	r6, ip
 8000f5e:	d1f7      	bne.n	8000f50 <HAL_PCD_EP_Transmit+0x2a0>
 8000f60:	e717      	b.n	8000d92 <HAL_PCD_EP_Transmit+0xe2>
 8000f62:	4663      	mov	r3, ip
 8000f64:	4652      	mov	r2, sl
 8000f66:	005b      	lsls	r3, r3, #1
 8000f68:	18f3      	adds	r3, r6, r3
 8000f6a:	1b92      	subs	r2, r2, r6
 8000f6c:	7877      	ldrb	r7, [r6, #1]
 8000f6e:	7835      	ldrb	r5, [r6, #0]
 8000f70:	023f      	lsls	r7, r7, #8
 8000f72:	432f      	orrs	r7, r5
 8000f74:	52b7      	strh	r7, [r6, r2]
 8000f76:	3602      	adds	r6, #2
 8000f78:	42b3      	cmp	r3, r6
 8000f7a:	d1f7      	bne.n	8000f6c <HAL_PCD_EP_Transmit+0x2bc>
 8000f7c:	e7a9      	b.n	8000ed2 <HAL_PCD_EP_Transmit+0x222>
 8000f7e:	087a      	lsrs	r2, r7, #1
 8000f80:	b292      	uxth	r2, r2
 8000f82:	07fd      	lsls	r5, r7, #31
 8000f84:	d501      	bpl.n	8000f8a <HAL_PCD_EP_Transmit+0x2da>
 8000f86:	3201      	adds	r2, #1
 8000f88:	b292      	uxth	r2, r2
 8000f8a:	0292      	lsls	r2, r2, #10
 8000f8c:	8032      	strh	r2, [r6, #0]
 8000f8e:	e762      	b.n	8000e56 <HAL_PCD_EP_Transmit+0x1a6>
 8000f90:	087a      	lsrs	r2, r7, #1
 8000f92:	b292      	uxth	r2, r2
 8000f94:	07fd      	lsls	r5, r7, #31
 8000f96:	d501      	bpl.n	8000f9c <HAL_PCD_EP_Transmit+0x2ec>
 8000f98:	3201      	adds	r2, #1
 8000f9a:	b292      	uxth	r2, r2
 8000f9c:	0292      	lsls	r2, r2, #10
 8000f9e:	8032      	strh	r2, [r6, #0]
 8000fa0:	e73d      	b.n	8000e1e <HAL_PCD_EP_Transmit+0x16e>
 8000fa2:	46c0      	nop			; (mov r8, r8)
 8000fa4:	00000402 	.word	0x00000402
 8000fa8:	ffff8fbf 	.word	0xffff8fbf
 8000fac:	00008080 	.word	0x00008080
 8000fb0:	00000406 	.word	0x00000406
 8000fb4:	ffff8000 	.word	0xffff8000
 8000fb8:	00000f0f 	.word	0x00000f0f
 8000fbc:	0000c080 	.word	0x0000c080
 8000fc0:	000080c0 	.word	0x000080c0

08000fc4 <HAL_PCD_IRQHandler>:
 8000fc4:	b5f0      	push	{r4, r5, r6, r7, lr}
 8000fc6:	4645      	mov	r5, r8
 8000fc8:	46de      	mov	lr, fp
 8000fca:	4657      	mov	r7, sl
 8000fcc:	464e      	mov	r6, r9
 8000fce:	2244      	movs	r2, #68	; 0x44
 8000fd0:	b5e0      	push	{r5, r6, r7, lr}
 8000fd2:	6803      	ldr	r3, [r0, #0]
 8000fd4:	b087      	sub	sp, #28
 8000fd6:	5a9a      	ldrh	r2, [r3, r2]
 8000fd8:	0005      	movs	r5, r0
 8000fda:	b212      	sxth	r2, r2
 8000fdc:	2a00      	cmp	r2, #0
 8000fde:	da00      	bge.n	8000fe2 <HAL_PCD_IRQHandler+0x1e>
 8000fe0:	e06c      	b.n	80010bc <HAL_PCD_IRQHandler+0xf8>
 8000fe2:	2244      	movs	r2, #68	; 0x44
 8000fe4:	5a99      	ldrh	r1, [r3, r2]
 8000fe6:	0549      	lsls	r1, r1, #21
 8000fe8:	d44b      	bmi.n	8001082 <HAL_PCD_IRQHandler+0xbe>
 8000fea:	2244      	movs	r2, #68	; 0x44
 8000fec:	5a99      	ldrh	r1, [r3, r2]
 8000fee:	0449      	lsls	r1, r1, #17
 8000ff0:	d503      	bpl.n	8000ffa <HAL_PCD_IRQHandler+0x36>
 8000ff2:	5a99      	ldrh	r1, [r3, r2]
 8000ff4:	48b5      	ldr	r0, [pc, #724]	; (80012cc <HAL_PCD_IRQHandler+0x308>)
 8000ff6:	4001      	ands	r1, r0
 8000ff8:	5299      	strh	r1, [r3, r2]
 8000ffa:	2244      	movs	r2, #68	; 0x44
 8000ffc:	5a99      	ldrh	r1, [r3, r2]
 8000ffe:	0489      	lsls	r1, r1, #18
 8001000:	d503      	bpl.n	800100a <HAL_PCD_IRQHandler+0x46>
 8001002:	5a99      	ldrh	r1, [r3, r2]
 8001004:	48b2      	ldr	r0, [pc, #712]	; (80012d0 <HAL_PCD_IRQHandler+0x30c>)
 8001006:	4001      	ands	r1, r0
 8001008:	5299      	strh	r1, [r3, r2]
 800100a:	2444      	movs	r4, #68	; 0x44
 800100c:	5b1a      	ldrh	r2, [r3, r4]
 800100e:	04d2      	lsls	r2, r2, #19
 8001010:	d427      	bmi.n	8001062 <HAL_PCD_IRQHandler+0x9e>
 8001012:	2244      	movs	r2, #68	; 0x44
 8001014:	5a99      	ldrh	r1, [r3, r2]
 8001016:	0509      	lsls	r1, r1, #20
 8001018:	d510      	bpl.n	800103c <HAL_PCD_IRQHandler+0x78>
 800101a:	5a99      	ldrh	r1, [r3, r2]
 800101c:	48ad      	ldr	r0, [pc, #692]	; (80012d4 <HAL_PCD_IRQHandler+0x310>)
 800101e:	2408      	movs	r4, #8
 8001020:	4001      	ands	r1, r0
 8001022:	5299      	strh	r1, [r3, r2]
 8001024:	2140      	movs	r1, #64	; 0x40
 8001026:	5a58      	ldrh	r0, [r3, r1]
 8001028:	4320      	orrs	r0, r4
 800102a:	2404      	movs	r4, #4
 800102c:	5258      	strh	r0, [r3, r1]
 800102e:	5a58      	ldrh	r0, [r3, r1]
 8001030:	4320      	orrs	r0, r4
 8001032:	5258      	strh	r0, [r3, r1]
 8001034:	5a9a      	ldrh	r2, [r3, r2]
 8001036:	04d2      	lsls	r2, r2, #19
 8001038:	d400      	bmi.n	800103c <HAL_PCD_IRQHandler+0x78>
 800103a:	e195      	b.n	8001368 <HAL_PCD_IRQHandler+0x3a4>
 800103c:	2244      	movs	r2, #68	; 0x44
 800103e:	5a99      	ldrh	r1, [r3, r2]
 8001040:	0589      	lsls	r1, r1, #22
 8001042:	d432      	bmi.n	80010aa <HAL_PCD_IRQHandler+0xe6>
 8001044:	2244      	movs	r2, #68	; 0x44
 8001046:	5a99      	ldrh	r1, [r3, r2]
 8001048:	05c9      	lsls	r1, r1, #23
 800104a:	d503      	bpl.n	8001054 <HAL_PCD_IRQHandler+0x90>
 800104c:	5a99      	ldrh	r1, [r3, r2]
 800104e:	48a2      	ldr	r0, [pc, #648]	; (80012d8 <HAL_PCD_IRQHandler+0x314>)
 8001050:	4001      	ands	r1, r0
 8001052:	5299      	strh	r1, [r3, r2]
 8001054:	b007      	add	sp, #28
 8001056:	bc3c      	pop	{r2, r3, r4, r5}
 8001058:	4690      	mov	r8, r2
 800105a:	4699      	mov	r9, r3
 800105c:	46a2      	mov	sl, r4
 800105e:	46ab      	mov	fp, r5
 8001060:	bdf0      	pop	{r4, r5, r6, r7, pc}
 8001062:	2240      	movs	r2, #64	; 0x40
 8001064:	2004      	movs	r0, #4
 8001066:	5a99      	ldrh	r1, [r3, r2]
 8001068:	4381      	bics	r1, r0
 800106a:	5299      	strh	r1, [r3, r2]
 800106c:	499b      	ldr	r1, [pc, #620]	; (80012dc <HAL_PCD_IRQHandler+0x318>)
 800106e:	0028      	movs	r0, r5
 8001070:	5299      	strh	r1, [r3, r2]
 8001072:	f001 fed9 	bl	8002e28 <HAL_PCD_ResumeCallback>
 8001076:	682b      	ldr	r3, [r5, #0]
 8001078:	4999      	ldr	r1, [pc, #612]	; (80012e0 <HAL_PCD_IRQHandler+0x31c>)
 800107a:	5b1a      	ldrh	r2, [r3, r4]
 800107c:	400a      	ands	r2, r1
 800107e:	531a      	strh	r2, [r3, r4]
 8001080:	e7c7      	b.n	8001012 <HAL_PCD_IRQHandler+0x4e>
 8001082:	5a99      	ldrh	r1, [r3, r2]
 8001084:	4897      	ldr	r0, [pc, #604]	; (80012e4 <HAL_PCD_IRQHandler+0x320>)
 8001086:	4001      	ands	r1, r0
 8001088:	5299      	strh	r1, [r3, r2]
 800108a:	0028      	movs	r0, r5
 800108c:	f001 fea8 	bl	8002de0 <HAL_PCD_ResetCallback>
 8001090:	22f4      	movs	r2, #244	; 0xf4
 8001092:	0052      	lsls	r2, r2, #1
 8001094:	5cab      	ldrb	r3, [r5, r2]
 8001096:	2b01      	cmp	r3, #1
 8001098:	d100      	bne.n	800109c <HAL_PCD_IRQHandler+0xd8>
 800109a:	e227      	b.n	80014ec <HAL_PCD_IRQHandler+0x528>
 800109c:	214c      	movs	r1, #76	; 0x4c
 800109e:	2080      	movs	r0, #128	; 0x80
 80010a0:	682b      	ldr	r3, [r5, #0]
 80010a2:	5258      	strh	r0, [r3, r1]
 80010a4:	2100      	movs	r1, #0
 80010a6:	54a9      	strb	r1, [r5, r2]
 80010a8:	e79f      	b.n	8000fea <HAL_PCD_IRQHandler+0x26>
 80010aa:	5a99      	ldrh	r1, [r3, r2]
 80010ac:	488e      	ldr	r0, [pc, #568]	; (80012e8 <HAL_PCD_IRQHandler+0x324>)
 80010ae:	4001      	ands	r1, r0
 80010b0:	5299      	strh	r1, [r3, r2]
 80010b2:	0028      	movs	r0, r5
 80010b4:	f001 fe8c 	bl	8002dd0 <HAL_PCD_SOFCallback>
 80010b8:	682b      	ldr	r3, [r5, #0]
 80010ba:	e7c3      	b.n	8001044 <HAL_PCD_IRQHandler+0x80>
 80010bc:	2200      	movs	r2, #0
 80010be:	a904      	add	r1, sp, #16
 80010c0:	80ca      	strh	r2, [r1, #6]
 80010c2:	3244      	adds	r2, #68	; 0x44
 80010c4:	4690      	mov	r8, r2
 80010c6:	3a35      	subs	r2, #53	; 0x35
 80010c8:	4693      	mov	fp, r2
 80010ca:	4642      	mov	r2, r8
 80010cc:	5a9a      	ldrh	r2, [r3, r2]
 80010ce:	a904      	add	r1, sp, #16
 80010d0:	b292      	uxth	r2, r2
 80010d2:	808a      	strh	r2, [r1, #4]
 80010d4:	b212      	sxth	r2, r2
 80010d6:	2a00      	cmp	r2, #0
 80010d8:	db00      	blt.n	80010dc <HAL_PCD_IRQHandler+0x118>
 80010da:	e782      	b.n	8000fe2 <HAL_PCD_IRQHandler+0x1e>
 80010dc:	aa04      	add	r2, sp, #16
 80010de:	8894      	ldrh	r4, [r2, #4]
 80010e0:	465a      	mov	r2, fp
 80010e2:	4014      	ands	r4, r2
 80010e4:	d148      	bne.n	8001178 <HAL_PCD_IRQHandler+0x1b4>
 80010e6:	aa04      	add	r2, sp, #16
 80010e8:	8892      	ldrh	r2, [r2, #4]
 80010ea:	06d2      	lsls	r2, r2, #27
 80010ec:	d400      	bmi.n	80010f0 <HAL_PCD_IRQHandler+0x12c>
 80010ee:	e10d      	b.n	800130c <HAL_PCD_IRQHandler+0x348>
 80010f0:	881a      	ldrh	r2, [r3, #0]
 80010f2:	a904      	add	r1, sp, #16
 80010f4:	b292      	uxth	r2, r2
 80010f6:	80ca      	strh	r2, [r1, #6]
 80010f8:	88ca      	ldrh	r2, [r1, #6]
 80010fa:	0512      	lsls	r2, r2, #20
 80010fc:	d500      	bpl.n	8001100 <HAL_PCD_IRQHandler+0x13c>
 80010fe:	e1ba      	b.n	8001476 <HAL_PCD_IRQHandler+0x4b2>
 8001100:	aa04      	add	r2, sp, #16
 8001102:	88d2      	ldrh	r2, [r2, #6]
 8001104:	b212      	sxth	r2, r2
 8001106:	2a00      	cmp	r2, #0
 8001108:	dadf      	bge.n	80010ca <HAL_PCD_IRQHandler+0x106>
 800110a:	881a      	ldrh	r2, [r3, #0]
 800110c:	4977      	ldr	r1, [pc, #476]	; (80012ec <HAL_PCD_IRQHandler+0x328>)
 800110e:	002c      	movs	r4, r5
 8001110:	400a      	ands	r2, r1
 8001112:	801a      	strh	r2, [r3, #0]
 8001114:	2250      	movs	r2, #80	; 0x50
 8001116:	5a99      	ldrh	r1, [r3, r2]
 8001118:	32b8      	adds	r2, #184	; 0xb8
 800111a:	5caa      	ldrb	r2, [r5, r2]
 800111c:	3409      	adds	r4, #9
 800111e:	00d2      	lsls	r2, r2, #3
 8001120:	1852      	adds	r2, r2, r1
 8001122:	4973      	ldr	r1, [pc, #460]	; (80012f0 <HAL_PCD_IRQHandler+0x32c>)
 8001124:	18d2      	adds	r2, r2, r3
 8001126:	468c      	mov	ip, r1
 8001128:	4462      	add	r2, ip
 800112a:	8817      	ldrh	r7, [r2, #0]
 800112c:	34ff      	adds	r4, #255	; 0xff
 800112e:	05ba      	lsls	r2, r7, #22
 8001130:	0d92      	lsrs	r2, r2, #22
 8001132:	61a2      	str	r2, [r4, #24]
 8001134:	d000      	beq.n	8001138 <HAL_PCD_IRQHandler+0x174>
 8001136:	e315      	b.n	8001764 <HAL_PCD_IRQHandler+0x7a0>
 8001138:	2100      	movs	r1, #0
 800113a:	0028      	movs	r0, r5
 800113c:	f001 fe2e 	bl	8002d9c <HAL_PCD_DataOutStageCallback>
 8001140:	2250      	movs	r2, #80	; 0x50
 8001142:	682b      	ldr	r3, [r5, #0]
 8001144:	496a      	ldr	r1, [pc, #424]	; (80012f0 <HAL_PCD_IRQHandler+0x32c>)
 8001146:	5a9a      	ldrh	r2, [r3, r2]
 8001148:	1859      	adds	r1, r3, r1
 800114a:	188a      	adds	r2, r1, r2
 800114c:	68e1      	ldr	r1, [r4, #12]
 800114e:	293e      	cmp	r1, #62	; 0x3e
 8001150:	d900      	bls.n	8001154 <HAL_PCD_IRQHandler+0x190>
 8001152:	e277      	b.n	8001644 <HAL_PCD_IRQHandler+0x680>
 8001154:	0848      	lsrs	r0, r1, #1
 8001156:	b280      	uxth	r0, r0
 8001158:	07c9      	lsls	r1, r1, #31
 800115a:	d501      	bpl.n	8001160 <HAL_PCD_IRQHandler+0x19c>
 800115c:	3001      	adds	r0, #1
 800115e:	b280      	uxth	r0, r0
 8001160:	0280      	lsls	r0, r0, #10
 8001162:	8010      	strh	r0, [r2, #0]
 8001164:	881a      	ldrh	r2, [r3, #0]
 8001166:	4963      	ldr	r1, [pc, #396]	; (80012f4 <HAL_PCD_IRQHandler+0x330>)
 8001168:	4011      	ands	r1, r2
 800116a:	22c0      	movs	r2, #192	; 0xc0
 800116c:	0192      	lsls	r2, r2, #6
 800116e:	404a      	eors	r2, r1
 8001170:	4961      	ldr	r1, [pc, #388]	; (80012f8 <HAL_PCD_IRQHandler+0x334>)
 8001172:	430a      	orrs	r2, r1
 8001174:	801a      	strh	r2, [r3, #0]
 8001176:	e7a8      	b.n	80010ca <HAL_PCD_IRQHandler+0x106>
 8001178:	00a6      	lsls	r6, r4, #2
 800117a:	1999      	adds	r1, r3, r6
 800117c:	880a      	ldrh	r2, [r1, #0]
 800117e:	a804      	add	r0, sp, #16
 8001180:	b292      	uxth	r2, r2
 8001182:	80c2      	strh	r2, [r0, #6]
 8001184:	88c2      	ldrh	r2, [r0, #6]
 8001186:	b212      	sxth	r2, r2
 8001188:	2a00      	cmp	r2, #0
 800118a:	db57      	blt.n	800123c <HAL_PCD_IRQHandler+0x278>
 800118c:	2180      	movs	r1, #128	; 0x80
 800118e:	aa04      	add	r2, sp, #16
 8001190:	88d2      	ldrh	r2, [r2, #6]
 8001192:	4211      	tst	r1, r2
 8001194:	d099      	beq.n	80010ca <HAL_PCD_IRQHandler+0x106>
 8001196:	199e      	adds	r6, r3, r6
 8001198:	8832      	ldrh	r2, [r6, #0]
 800119a:	4958      	ldr	r1, [pc, #352]	; (80012fc <HAL_PCD_IRQHandler+0x338>)
 800119c:	400a      	ands	r2, r1
 800119e:	8032      	strh	r2, [r6, #0]
 80011a0:	4a57      	ldr	r2, [pc, #348]	; (8001300 <HAL_PCD_IRQHandler+0x33c>)
 80011a2:	189f      	adds	r7, r3, r2
 80011a4:	00e2      	lsls	r2, r4, #3
 80011a6:	1b11      	subs	r1, r2, r4
 80011a8:	0089      	lsls	r1, r1, #2
 80011aa:	468c      	mov	ip, r1
 80011ac:	44ac      	add	ip, r5
 80011ae:	4661      	mov	r1, ip
 80011b0:	3132      	adds	r1, #50	; 0x32
 80011b2:	7809      	ldrb	r1, [r1, #0]
 80011b4:	9700      	str	r7, [sp, #0]
 80011b6:	2900      	cmp	r1, #0
 80011b8:	d100      	bne.n	80011bc <HAL_PCD_IRQHandler+0x1f8>
 80011ba:	e0da      	b.n	8001372 <HAL_PCD_IRQHandler+0x3ae>
 80011bc:	4661      	mov	r1, ip
 80011be:	2040      	movs	r0, #64	; 0x40
 80011c0:	3128      	adds	r1, #40	; 0x28
 80011c2:	780e      	ldrb	r6, [r1, #0]
 80011c4:	00b1      	lsls	r1, r6, #2
 80011c6:	1859      	adds	r1, r3, r1
 80011c8:	8809      	ldrh	r1, [r1, #0]
 80011ca:	00f6      	lsls	r6, r6, #3
 80011cc:	4001      	ands	r1, r0
 80011ce:	d100      	bne.n	80011d2 <HAL_PCD_IRQHandler+0x20e>
 80011d0:	e18e      	b.n	80014f0 <HAL_PCD_IRQHandler+0x52c>
 80011d2:	2150      	movs	r1, #80	; 0x50
 80011d4:	46b9      	mov	r9, r7
 80011d6:	4660      	mov	r0, ip
 80011d8:	5a59      	ldrh	r1, [r3, r1]
 80011da:	4449      	add	r1, r9
 80011dc:	5b89      	ldrh	r1, [r1, r6]
 80011de:	0589      	lsls	r1, r1, #22
 80011e0:	0d89      	lsrs	r1, r1, #22
 80011e2:	6401      	str	r1, [r0, #64]	; 0x40
 80011e4:	d000      	beq.n	80011e8 <HAL_PCD_IRQHandler+0x224>
 80011e6:	e2e5      	b.n	80017b4 <HAL_PCD_IRQHandler+0x7f0>
 80011e8:	1b11      	subs	r1, r2, r4
 80011ea:	0089      	lsls	r1, r1, #2
 80011ec:	1869      	adds	r1, r5, r1
 80011ee:	3128      	adds	r1, #40	; 0x28
 80011f0:	7809      	ldrb	r1, [r1, #0]
 80011f2:	4e44      	ldr	r6, [pc, #272]	; (8001304 <HAL_PCD_IRQHandler+0x340>)
 80011f4:	0089      	lsls	r1, r1, #2
 80011f6:	1859      	adds	r1, r3, r1
 80011f8:	8808      	ldrh	r0, [r1, #0]
 80011fa:	4030      	ands	r0, r6
 80011fc:	4e42      	ldr	r6, [pc, #264]	; (8001308 <HAL_PCD_IRQHandler+0x344>)
 80011fe:	4330      	orrs	r0, r6
 8001200:	8008      	strh	r0, [r1, #0]
 8001202:	2150      	movs	r1, #80	; 0x50
 8001204:	1b14      	subs	r4, r2, r4
 8001206:	00a4      	lsls	r4, r4, #2
 8001208:	192c      	adds	r4, r5, r4
 800120a:	5a58      	ldrh	r0, [r3, r1]
 800120c:	0021      	movs	r1, r4
 800120e:	3128      	adds	r1, #40	; 0x28
 8001210:	780b      	ldrb	r3, [r1, #0]
 8001212:	9a00      	ldr	r2, [sp, #0]
 8001214:	00db      	lsls	r3, r3, #3
 8001216:	181b      	adds	r3, r3, r0
 8001218:	5a9a      	ldrh	r2, [r3, r2]
 800121a:	6ba3      	ldr	r3, [r4, #56]	; 0x38
 800121c:	0592      	lsls	r2, r2, #22
 800121e:	469c      	mov	ip, r3
 8001220:	0d92      	lsrs	r2, r2, #22
 8001222:	6422      	str	r2, [r4, #64]	; 0x40
 8001224:	6be3      	ldr	r3, [r4, #60]	; 0x3c
 8001226:	4462      	add	r2, ip
 8001228:	63a2      	str	r2, [r4, #56]	; 0x38
 800122a:	7809      	ldrb	r1, [r1, #0]
 800122c:	0028      	movs	r0, r5
 800122e:	2b00      	cmp	r3, #0
 8001230:	d000      	beq.n	8001234 <HAL_PCD_IRQHandler+0x270>
 8001232:	e095      	b.n	8001360 <HAL_PCD_IRQHandler+0x39c>
 8001234:	f001 fdc0 	bl	8002db8 <HAL_PCD_DataInStageCallback>
 8001238:	682b      	ldr	r3, [r5, #0]
 800123a:	e746      	b.n	80010ca <HAL_PCD_IRQHandler+0x106>
 800123c:	880a      	ldrh	r2, [r1, #0]
 800123e:	482b      	ldr	r0, [pc, #172]	; (80012ec <HAL_PCD_IRQHandler+0x328>)
 8001240:	4002      	ands	r2, r0
 8001242:	800a      	strh	r2, [r1, #0]
 8001244:	00e2      	lsls	r2, r4, #3
 8001246:	1b11      	subs	r1, r2, r4
 8001248:	0089      	lsls	r1, r1, #2
 800124a:	1869      	adds	r1, r5, r1
 800124c:	0008      	movs	r0, r1
 800124e:	3013      	adds	r0, #19
 8001250:	30ff      	adds	r0, #255	; 0xff
 8001252:	7800      	ldrb	r0, [r0, #0]
 8001254:	2800      	cmp	r0, #0
 8001256:	d000      	beq.n	800125a <HAL_PCD_IRQHandler+0x296>
 8001258:	e0e8      	b.n	800142c <HAL_PCD_IRQHandler+0x468>
 800125a:	3050      	adds	r0, #80	; 0x50
 800125c:	5a1f      	ldrh	r7, [r3, r0]
 800125e:	0008      	movs	r0, r1
 8001260:	3009      	adds	r0, #9
 8001262:	30ff      	adds	r0, #255	; 0xff
 8001264:	7800      	ldrb	r0, [r0, #0]
 8001266:	00c0      	lsls	r0, r0, #3
 8001268:	19c0      	adds	r0, r0, r7
 800126a:	4f21      	ldr	r7, [pc, #132]	; (80012f0 <HAL_PCD_IRQHandler+0x32c>)
 800126c:	18c0      	adds	r0, r0, r3
 800126e:	46bc      	mov	ip, r7
 8001270:	4460      	add	r0, ip
 8001272:	8800      	ldrh	r0, [r0, #0]
 8001274:	4681      	mov	r9, r0
 8001276:	0580      	lsls	r0, r0, #22
 8001278:	0d80      	lsrs	r0, r0, #22
 800127a:	4684      	mov	ip, r0
 800127c:	4667      	mov	r7, ip
 800127e:	2000      	movs	r0, #0
 8001280:	2f00      	cmp	r7, #0
 8001282:	d000      	beq.n	8001286 <HAL_PCD_IRQHandler+0x2c2>
 8001284:	e23a      	b.n	80016fc <HAL_PCD_IRQHandler+0x738>
 8001286:	1b17      	subs	r7, r2, r4
 8001288:	00bf      	lsls	r7, r7, #2
 800128a:	19ef      	adds	r7, r5, r7
 800128c:	003a      	movs	r2, r7
 800128e:	3221      	adds	r2, #33	; 0x21
 8001290:	32ff      	adds	r2, #255	; 0xff
 8001292:	6813      	ldr	r3, [r2, #0]
 8001294:	181b      	adds	r3, r3, r0
 8001296:	6013      	str	r3, [r2, #0]
 8001298:	003b      	movs	r3, r7
 800129a:	3319      	adds	r3, #25
 800129c:	33ff      	adds	r3, #255	; 0xff
 800129e:	681a      	ldr	r2, [r3, #0]
 80012a0:	1812      	adds	r2, r2, r0
 80012a2:	601a      	str	r2, [r3, #0]
 80012a4:	3304      	adds	r3, #4
 80012a6:	681b      	ldr	r3, [r3, #0]
 80012a8:	2b00      	cmp	r3, #0
 80012aa:	d100      	bne.n	80012ae <HAL_PCD_IRQHandler+0x2ea>
 80012ac:	e17b      	b.n	80015a6 <HAL_PCD_IRQHandler+0x5e2>
 80012ae:	0039      	movs	r1, r7
 80012b0:	3715      	adds	r7, #21
 80012b2:	37ff      	adds	r7, #255	; 0xff
 80012b4:	3109      	adds	r1, #9
 80012b6:	683f      	ldr	r7, [r7, #0]
 80012b8:	31ff      	adds	r1, #255	; 0xff
 80012ba:	7809      	ldrb	r1, [r1, #0]
 80012bc:	4287      	cmp	r7, r0
 80012be:	d800      	bhi.n	80012c2 <HAL_PCD_IRQHandler+0x2fe>
 80012c0:	e217      	b.n	80016f2 <HAL_PCD_IRQHandler+0x72e>
 80012c2:	0028      	movs	r0, r5
 80012c4:	f001 fd6a 	bl	8002d9c <HAL_PCD_DataOutStageCallback>
 80012c8:	682b      	ldr	r3, [r5, #0]
 80012ca:	e75f      	b.n	800118c <HAL_PCD_IRQHandler+0x1c8>
 80012cc:	ffffbfff 	.word	0xffffbfff
 80012d0:	ffffdfff 	.word	0xffffdfff
 80012d4:	fffff7ff 	.word	0xfffff7ff
 80012d8:	fffffeff 	.word	0xfffffeff
 80012dc:	ffffbd00 	.word	0xffffbd00
 80012e0:	ffffefff 	.word	0xffffefff
 80012e4:	fffffbff 	.word	0xfffffbff
 80012e8:	fffffdff 	.word	0xfffffdff
 80012ec:	00000f8f 	.word	0x00000f8f
 80012f0:	00000406 	.word	0x00000406
 80012f4:	ffffbf8f 	.word	0xffffbf8f
 80012f8:	00008080 	.word	0x00008080
 80012fc:	ffff8f0f 	.word	0xffff8f0f
 8001300:	00000402 	.word	0x00000402
 8001304:	00000f0f 	.word	0x00000f0f
 8001308:	0000c080 	.word	0x0000c080
 800130c:	881a      	ldrh	r2, [r3, #0]
 800130e:	49d3      	ldr	r1, [pc, #844]	; (800165c <HAL_PCD_IRQHandler+0x698>)
 8001310:	0028      	movs	r0, r5
 8001312:	400a      	ands	r2, r1
 8001314:	801a      	strh	r2, [r3, #0]
 8001316:	2250      	movs	r2, #80	; 0x50
 8001318:	5a99      	ldrh	r1, [r3, r2]
 800131a:	3a28      	subs	r2, #40	; 0x28
 800131c:	5caa      	ldrb	r2, [r5, r2]
 800131e:	00d2      	lsls	r2, r2, #3
 8001320:	189b      	adds	r3, r3, r2
 8001322:	4acf      	ldr	r2, [pc, #828]	; (8001660 <HAL_PCD_IRQHandler+0x69c>)
 8001324:	185b      	adds	r3, r3, r1
 8001326:	4694      	mov	ip, r2
 8001328:	6baa      	ldr	r2, [r5, #56]	; 0x38
 800132a:	4463      	add	r3, ip
 800132c:	4694      	mov	ip, r2
 800132e:	881b      	ldrh	r3, [r3, #0]
 8001330:	2100      	movs	r1, #0
 8001332:	059b      	lsls	r3, r3, #22
 8001334:	0d9b      	lsrs	r3, r3, #22
 8001336:	642b      	str	r3, [r5, #64]	; 0x40
 8001338:	4463      	add	r3, ip
 800133a:	63ab      	str	r3, [r5, #56]	; 0x38
 800133c:	f001 fd3c 	bl	8002db8 <HAL_PCD_DataInStageCallback>
 8001340:	2224      	movs	r2, #36	; 0x24
 8001342:	5cab      	ldrb	r3, [r5, r2]
 8001344:	2b00      	cmp	r3, #0
 8001346:	d00d      	beq.n	8001364 <HAL_PCD_IRQHandler+0x3a0>
 8001348:	6be9      	ldr	r1, [r5, #60]	; 0x3c
 800134a:	682b      	ldr	r3, [r5, #0]
 800134c:	2900      	cmp	r1, #0
 800134e:	d000      	beq.n	8001352 <HAL_PCD_IRQHandler+0x38e>
 8001350:	e6bb      	b.n	80010ca <HAL_PCD_IRQHandler+0x106>
 8001352:	2480      	movs	r4, #128	; 0x80
 8001354:	5ca8      	ldrb	r0, [r5, r2]
 8001356:	4320      	orrs	r0, r4
 8001358:	3c34      	subs	r4, #52	; 0x34
 800135a:	5318      	strh	r0, [r3, r4]
 800135c:	54a9      	strb	r1, [r5, r2]
 800135e:	e6b4      	b.n	80010ca <HAL_PCD_IRQHandler+0x106>
 8001360:	f7ff fca6 	bl	8000cb0 <HAL_PCD_EP_Transmit>
 8001364:	682b      	ldr	r3, [r5, #0]
 8001366:	e6b0      	b.n	80010ca <HAL_PCD_IRQHandler+0x106>
 8001368:	0028      	movs	r0, r5
 800136a:	f001 fd4b 	bl	8002e04 <HAL_PCD_SuspendCallback>
 800136e:	682b      	ldr	r3, [r5, #0]
 8001370:	e664      	b.n	800103c <HAL_PCD_IRQHandler+0x78>
 8001372:	2050      	movs	r0, #80	; 0x50
 8001374:	5a1e      	ldrh	r6, [r3, r0]
 8001376:	4660      	mov	r0, ip
 8001378:	3028      	adds	r0, #40	; 0x28
 800137a:	7800      	ldrb	r0, [r0, #0]
 800137c:	00c0      	lsls	r0, r0, #3
 800137e:	1980      	adds	r0, r0, r6
 8001380:	4666      	mov	r6, ip
 8001382:	5bc0      	ldrh	r0, [r0, r7]
 8001384:	0580      	lsls	r0, r0, #22
 8001386:	0d80      	lsrs	r0, r0, #22
 8001388:	6430      	str	r0, [r6, #64]	; 0x40
 800138a:	d100      	bne.n	800138e <HAL_PCD_IRQHandler+0x3ca>
 800138c:	e739      	b.n	8001202 <HAL_PCD_IRQHandler+0x23e>
 800138e:	4667      	mov	r7, ip
 8001390:	6bb6      	ldr	r6, [r6, #56]	; 0x38
 8001392:	3001      	adds	r0, #1
 8001394:	9601      	str	r6, [sp, #4]
 8001396:	8dbe      	ldrh	r6, [r7, #44]	; 0x2c
 8001398:	2780      	movs	r7, #128	; 0x80
 800139a:	00ff      	lsls	r7, r7, #3
 800139c:	46bc      	mov	ip, r7
 800139e:	4466      	add	r6, ip
 80013a0:	46b4      	mov	ip, r6
 80013a2:	449c      	add	ip, r3
 80013a4:	4667      	mov	r7, ip
 80013a6:	4681      	mov	r9, r0
 80013a8:	0840      	lsrs	r0, r0, #1
 80013aa:	9002      	str	r0, [sp, #8]
 80013ac:	0008      	movs	r0, r1
 80013ae:	1d3e      	adds	r6, r7, #4
 80013b0:	9f01      	ldr	r7, [sp, #4]
 80013b2:	42b7      	cmp	r7, r6
 80013b4:	4148      	adcs	r0, r1
 80013b6:	0006      	movs	r6, r0
 80013b8:	1d38      	adds	r0, r7, #4
 80013ba:	4682      	mov	sl, r0
 80013bc:	4660      	mov	r0, ip
 80013be:	4657      	mov	r7, sl
 80013c0:	42b8      	cmp	r0, r7
 80013c2:	4149      	adcs	r1, r1
 80013c4:	430e      	orrs	r6, r1
 80013c6:	9901      	ldr	r1, [sp, #4]
 80013c8:	4301      	orrs	r1, r0
 80013ca:	468a      	mov	sl, r1
 80013cc:	2103      	movs	r1, #3
 80013ce:	4657      	mov	r7, sl
 80013d0:	4039      	ands	r1, r7
 80013d2:	424f      	negs	r7, r1
 80013d4:	414f      	adcs	r7, r1
 80013d6:	4237      	tst	r7, r6
 80013d8:	d100      	bne.n	80013dc <HAL_PCD_IRQHandler+0x418>
 80013da:	e172      	b.n	80016c2 <HAL_PCD_IRQHandler+0x6fe>
 80013dc:	9802      	ldr	r0, [sp, #8]
 80013de:	280c      	cmp	r0, #12
 80013e0:	d800      	bhi.n	80013e4 <HAL_PCD_IRQHandler+0x420>
 80013e2:	e16e      	b.n	80016c2 <HAL_PCD_IRQHandler+0x6fe>
 80013e4:	4666      	mov	r6, ip
 80013e6:	9f01      	ldr	r7, [sp, #4]
 80013e8:	4649      	mov	r1, r9
 80013ea:	1bbf      	subs	r7, r7, r6
 80013ec:	46ba      	mov	sl, r7
 80013ee:	4699      	mov	r9, r3
 80013f0:	2000      	movs	r0, #0
 80013f2:	4653      	mov	r3, sl
 80013f4:	4692      	mov	sl, r2
 80013f6:	9f00      	ldr	r7, [sp, #0]
 80013f8:	0889      	lsrs	r1, r1, #2
 80013fa:	58f2      	ldr	r2, [r6, r3]
 80013fc:	3001      	adds	r0, #1
 80013fe:	c604      	stmia	r6!, {r2}
 8001400:	4288      	cmp	r0, r1
 8001402:	d3fa      	bcc.n	80013fa <HAL_PCD_IRQHandler+0x436>
 8001404:	9700      	str	r7, [sp, #0]
 8001406:	9e01      	ldr	r6, [sp, #4]
 8001408:	9f02      	ldr	r7, [sp, #8]
 800140a:	0048      	lsls	r0, r1, #1
 800140c:	0089      	lsls	r1, r1, #2
 800140e:	1876      	adds	r6, r6, r1
 8001410:	464b      	mov	r3, r9
 8001412:	4652      	mov	r2, sl
 8001414:	4461      	add	r1, ip
 8001416:	4287      	cmp	r7, r0
 8001418:	d100      	bne.n	800141c <HAL_PCD_IRQHandler+0x458>
 800141a:	e6f2      	b.n	8001202 <HAL_PCD_IRQHandler+0x23e>
 800141c:	7830      	ldrb	r0, [r6, #0]
 800141e:	4684      	mov	ip, r0
 8001420:	7870      	ldrb	r0, [r6, #1]
 8001422:	4666      	mov	r6, ip
 8001424:	0200      	lsls	r0, r0, #8
 8001426:	4330      	orrs	r0, r6
 8001428:	8008      	strh	r0, [r1, #0]
 800142a:	e6ea      	b.n	8001202 <HAL_PCD_IRQHandler+0x23e>
 800142c:	0008      	movs	r0, r1
 800142e:	3009      	adds	r0, #9
 8001430:	30ff      	adds	r0, #255	; 0xff
 8001432:	7800      	ldrb	r0, [r0, #0]
 8001434:	0087      	lsls	r7, r0, #2
 8001436:	46b9      	mov	r9, r7
 8001438:	4499      	add	r9, r3
 800143a:	464f      	mov	r7, r9
 800143c:	883f      	ldrh	r7, [r7, #0]
 800143e:	00c0      	lsls	r0, r0, #3
 8001440:	047f      	lsls	r7, r7, #17
 8001442:	d400      	bmi.n	8001446 <HAL_PCD_IRQHandler+0x482>
 8001444:	e0b3      	b.n	80015ae <HAL_PCD_IRQHandler+0x5ea>
 8001446:	2750      	movs	r7, #80	; 0x50
 8001448:	5bdf      	ldrh	r7, [r3, r7]
 800144a:	19df      	adds	r7, r3, r7
 800144c:	1838      	adds	r0, r7, r0
 800144e:	4f84      	ldr	r7, [pc, #528]	; (8001660 <HAL_PCD_IRQHandler+0x69c>)
 8001450:	46bc      	mov	ip, r7
 8001452:	4460      	add	r0, ip
 8001454:	8800      	ldrh	r0, [r0, #0]
 8001456:	0587      	lsls	r7, r0, #22
 8001458:	4684      	mov	ip, r0
 800145a:	0dbf      	lsrs	r7, r7, #22
 800145c:	2000      	movs	r0, #0
 800145e:	2f00      	cmp	r7, #0
 8001460:	d000      	beq.n	8001464 <HAL_PCD_IRQHandler+0x4a0>
 8001462:	e109      	b.n	8001678 <HAL_PCD_IRQHandler+0x6b4>
 8001464:	464b      	mov	r3, r9
 8001466:	497f      	ldr	r1, [pc, #508]	; (8001664 <HAL_PCD_IRQHandler+0x6a0>)
 8001468:	881b      	ldrh	r3, [r3, #0]
 800146a:	400b      	ands	r3, r1
 800146c:	497e      	ldr	r1, [pc, #504]	; (8001668 <HAL_PCD_IRQHandler+0x6a4>)
 800146e:	430b      	orrs	r3, r1
 8001470:	4649      	mov	r1, r9
 8001472:	800b      	strh	r3, [r1, #0]
 8001474:	e707      	b.n	8001286 <HAL_PCD_IRQHandler+0x2c2>
 8001476:	2250      	movs	r2, #80	; 0x50
 8001478:	5a99      	ldrh	r1, [r3, r2]
 800147a:	32b8      	adds	r2, #184	; 0xb8
 800147c:	5caa      	ldrb	r2, [r5, r2]
 800147e:	002f      	movs	r7, r5
 8001480:	00d2      	lsls	r2, r2, #3
 8001482:	1852      	adds	r2, r2, r1
 8001484:	4979      	ldr	r1, [pc, #484]	; (800166c <HAL_PCD_IRQHandler+0x6a8>)
 8001486:	18d2      	adds	r2, r2, r3
 8001488:	468c      	mov	ip, r1
 800148a:	4462      	add	r2, ip
 800148c:	8812      	ldrh	r2, [r2, #0]
 800148e:	3906      	subs	r1, #6
 8001490:	0596      	lsls	r6, r2, #22
 8001492:	4694      	mov	ip, r2
 8001494:	002a      	movs	r2, r5
 8001496:	4689      	mov	r9, r1
 8001498:	3209      	adds	r2, #9
 800149a:	0db6      	lsrs	r6, r6, #22
 800149c:	32ff      	adds	r2, #255	; 0xff
 800149e:	6196      	str	r6, [r2, #24]
 80014a0:	8892      	ldrh	r2, [r2, #4]
 80014a2:	37ed      	adds	r7, #237	; 0xed
 80014a4:	444a      	add	r2, r9
 80014a6:	37ff      	adds	r7, #255	; 0xff
 80014a8:	0876      	lsrs	r6, r6, #1
 80014aa:	18d3      	adds	r3, r2, r3
 80014ac:	2e00      	cmp	r6, #0
 80014ae:	d00e      	beq.n	80014ce <HAL_PCD_IRQHandler+0x50a>
 80014b0:	0039      	movs	r1, r7
 80014b2:	0034      	movs	r4, r6
 80014b4:	0018      	movs	r0, r3
 80014b6:	8802      	ldrh	r2, [r0, #0]
 80014b8:	3c01      	subs	r4, #1
 80014ba:	700a      	strb	r2, [r1, #0]
 80014bc:	0a12      	lsrs	r2, r2, #8
 80014be:	704a      	strb	r2, [r1, #1]
 80014c0:	3002      	adds	r0, #2
 80014c2:	3102      	adds	r1, #2
 80014c4:	2c00      	cmp	r4, #0
 80014c6:	d1f6      	bne.n	80014b6 <HAL_PCD_IRQHandler+0x4f2>
 80014c8:	0076      	lsls	r6, r6, #1
 80014ca:	199b      	adds	r3, r3, r6
 80014cc:	19bf      	adds	r7, r7, r6
 80014ce:	4662      	mov	r2, ip
 80014d0:	07d2      	lsls	r2, r2, #31
 80014d2:	d501      	bpl.n	80014d8 <HAL_PCD_IRQHandler+0x514>
 80014d4:	881b      	ldrh	r3, [r3, #0]
 80014d6:	703b      	strb	r3, [r7, #0]
 80014d8:	682a      	ldr	r2, [r5, #0]
 80014da:	4965      	ldr	r1, [pc, #404]	; (8001670 <HAL_PCD_IRQHandler+0x6ac>)
 80014dc:	8813      	ldrh	r3, [r2, #0]
 80014de:	0028      	movs	r0, r5
 80014e0:	400b      	ands	r3, r1
 80014e2:	8013      	strh	r3, [r2, #0]
 80014e4:	f001 fc50 	bl	8002d88 <HAL_PCD_SetupStageCallback>
 80014e8:	682b      	ldr	r3, [r5, #0]
 80014ea:	e5ee      	b.n	80010ca <HAL_PCD_IRQHandler+0x106>
 80014ec:	682b      	ldr	r3, [r5, #0]
 80014ee:	e57c      	b.n	8000fea <HAL_PCD_IRQHandler+0x26>
 80014f0:	2050      	movs	r0, #80	; 0x50
 80014f2:	5a18      	ldrh	r0, [r3, r0]
 80014f4:	1818      	adds	r0, r3, r0
 80014f6:	1980      	adds	r0, r0, r6
 80014f8:	4e5c      	ldr	r6, [pc, #368]	; (800166c <HAL_PCD_IRQHandler+0x6a8>)
 80014fa:	46b1      	mov	r9, r6
 80014fc:	4666      	mov	r6, ip
 80014fe:	4448      	add	r0, r9
 8001500:	8800      	ldrh	r0, [r0, #0]
 8001502:	0580      	lsls	r0, r0, #22
 8001504:	0d80      	lsrs	r0, r0, #22
 8001506:	6430      	str	r0, [r6, #64]	; 0x40
 8001508:	d100      	bne.n	800150c <HAL_PCD_IRQHandler+0x548>
 800150a:	e66d      	b.n	80011e8 <HAL_PCD_IRQHandler+0x224>
 800150c:	3001      	adds	r0, #1
 800150e:	4681      	mov	r9, r0
 8001510:	0840      	lsrs	r0, r0, #1
 8001512:	9001      	str	r0, [sp, #4]
 8001514:	2080      	movs	r0, #128	; 0x80
 8001516:	00c0      	lsls	r0, r0, #3
 8001518:	4684      	mov	ip, r0
 800151a:	6bb7      	ldr	r7, [r6, #56]	; 0x38
 800151c:	8e36      	ldrh	r6, [r6, #48]	; 0x30
 800151e:	0008      	movs	r0, r1
 8001520:	4466      	add	r6, ip
 8001522:	46b4      	mov	ip, r6
 8001524:	449c      	add	ip, r3
 8001526:	4666      	mov	r6, ip
 8001528:	3604      	adds	r6, #4
 800152a:	42b7      	cmp	r7, r6
 800152c:	4148      	adcs	r0, r1
 800152e:	9002      	str	r0, [sp, #8]
 8001530:	1d38      	adds	r0, r7, #4
 8001532:	4682      	mov	sl, r0
 8001534:	4660      	mov	r0, ip
 8001536:	4656      	mov	r6, sl
 8001538:	42b0      	cmp	r0, r6
 800153a:	4149      	adcs	r1, r1
 800153c:	9e02      	ldr	r6, [sp, #8]
 800153e:	9703      	str	r7, [sp, #12]
 8001540:	430e      	orrs	r6, r1
 8001542:	0039      	movs	r1, r7
 8001544:	4301      	orrs	r1, r0
 8001546:	468a      	mov	sl, r1
 8001548:	2103      	movs	r1, #3
 800154a:	4650      	mov	r0, sl
 800154c:	4001      	ands	r1, r0
 800154e:	4248      	negs	r0, r1
 8001550:	4148      	adcs	r0, r1
 8001552:	4230      	tst	r0, r6
 8001554:	d100      	bne.n	8001558 <HAL_PCD_IRQHandler+0x594>
 8001556:	e18f      	b.n	8001878 <HAL_PCD_IRQHandler+0x8b4>
 8001558:	9801      	ldr	r0, [sp, #4]
 800155a:	280c      	cmp	r0, #12
 800155c:	d800      	bhi.n	8001560 <HAL_PCD_IRQHandler+0x59c>
 800155e:	e18b      	b.n	8001878 <HAL_PCD_IRQHandler+0x8b4>
 8001560:	4666      	mov	r6, ip
 8001562:	1bbf      	subs	r7, r7, r6
 8001564:	46ba      	mov	sl, r7
 8001566:	4649      	mov	r1, r9
 8001568:	2000      	movs	r0, #0
 800156a:	4699      	mov	r9, r3
 800156c:	4653      	mov	r3, sl
 800156e:	4692      	mov	sl, r2
 8001570:	9f00      	ldr	r7, [sp, #0]
 8001572:	0889      	lsrs	r1, r1, #2
 8001574:	58f2      	ldr	r2, [r6, r3]
 8001576:	3001      	adds	r0, #1
 8001578:	c604      	stmia	r6!, {r2}
 800157a:	4281      	cmp	r1, r0
 800157c:	d8fa      	bhi.n	8001574 <HAL_PCD_IRQHandler+0x5b0>
 800157e:	9700      	str	r7, [sp, #0]
 8001580:	9e03      	ldr	r6, [sp, #12]
 8001582:	9f01      	ldr	r7, [sp, #4]
 8001584:	0048      	lsls	r0, r1, #1
 8001586:	0089      	lsls	r1, r1, #2
 8001588:	1876      	adds	r6, r6, r1
 800158a:	464b      	mov	r3, r9
 800158c:	4652      	mov	r2, sl
 800158e:	4461      	add	r1, ip
 8001590:	42b8      	cmp	r0, r7
 8001592:	d100      	bne.n	8001596 <HAL_PCD_IRQHandler+0x5d2>
 8001594:	e628      	b.n	80011e8 <HAL_PCD_IRQHandler+0x224>
 8001596:	7830      	ldrb	r0, [r6, #0]
 8001598:	4684      	mov	ip, r0
 800159a:	7870      	ldrb	r0, [r6, #1]
 800159c:	4666      	mov	r6, ip
 800159e:	0200      	lsls	r0, r0, #8
 80015a0:	4330      	orrs	r0, r6
 80015a2:	8008      	strh	r0, [r1, #0]
 80015a4:	e620      	b.n	80011e8 <HAL_PCD_IRQHandler+0x224>
 80015a6:	3709      	adds	r7, #9
 80015a8:	37ff      	adds	r7, #255	; 0xff
 80015aa:	7839      	ldrb	r1, [r7, #0]
 80015ac:	e689      	b.n	80012c2 <HAL_PCD_IRQHandler+0x2fe>
 80015ae:	2750      	movs	r7, #80	; 0x50
 80015b0:	5bdf      	ldrh	r7, [r3, r7]
 80015b2:	19df      	adds	r7, r3, r7
 80015b4:	1838      	adds	r0, r7, r0
 80015b6:	4f2d      	ldr	r7, [pc, #180]	; (800166c <HAL_PCD_IRQHandler+0x6a8>)
 80015b8:	46bc      	mov	ip, r7
 80015ba:	4460      	add	r0, ip
 80015bc:	8800      	ldrh	r0, [r0, #0]
 80015be:	0587      	lsls	r7, r0, #22
 80015c0:	4684      	mov	ip, r0
 80015c2:	0dbf      	lsrs	r7, r7, #22
 80015c4:	2000      	movs	r0, #0
 80015c6:	2f00      	cmp	r7, #0
 80015c8:	d100      	bne.n	80015cc <HAL_PCD_IRQHandler+0x608>
 80015ca:	e74b      	b.n	8001464 <HAL_PCD_IRQHandler+0x4a0>
 80015cc:	0008      	movs	r0, r1
 80015ce:	3111      	adds	r1, #17
 80015d0:	31ff      	adds	r1, #255	; 0xff
 80015d2:	8809      	ldrh	r1, [r1, #0]
 80015d4:	3019      	adds	r0, #25
 80015d6:	9100      	str	r1, [sp, #0]
 80015d8:	2180      	movs	r1, #128	; 0x80
 80015da:	00c9      	lsls	r1, r1, #3
 80015dc:	468a      	mov	sl, r1
 80015de:	30ff      	adds	r0, #255	; 0xff
 80015e0:	9900      	ldr	r1, [sp, #0]
 80015e2:	6800      	ldr	r0, [r0, #0]
 80015e4:	4451      	add	r1, sl
 80015e6:	4681      	mov	r9, r0
 80015e8:	18cb      	adds	r3, r1, r3
 80015ea:	0878      	lsrs	r0, r7, #1
 80015ec:	9001      	str	r0, [sp, #4]
 80015ee:	9300      	str	r3, [sp, #0]
 80015f0:	d016      	beq.n	8001620 <HAL_PCD_IRQHandler+0x65c>
 80015f2:	9002      	str	r0, [sp, #8]
 80015f4:	4649      	mov	r1, r9
 80015f6:	0018      	movs	r0, r3
 80015f8:	1a40      	subs	r0, r0, r1
 80015fa:	4682      	mov	sl, r0
 80015fc:	0010      	movs	r0, r2
 80015fe:	4652      	mov	r2, sl
 8001600:	4682      	mov	sl, r0
 8001602:	9b02      	ldr	r3, [sp, #8]
 8001604:	5a50      	ldrh	r0, [r2, r1]
 8001606:	3b01      	subs	r3, #1
 8001608:	7008      	strb	r0, [r1, #0]
 800160a:	0a00      	lsrs	r0, r0, #8
 800160c:	7048      	strb	r0, [r1, #1]
 800160e:	3102      	adds	r1, #2
 8001610:	2b00      	cmp	r3, #0
 8001612:	d1f7      	bne.n	8001604 <HAL_PCD_IRQHandler+0x640>
 8001614:	4652      	mov	r2, sl
 8001616:	9b01      	ldr	r3, [sp, #4]
 8001618:	0059      	lsls	r1, r3, #1
 800161a:	9b00      	ldr	r3, [sp, #0]
 800161c:	4489      	add	r9, r1
 800161e:	185b      	adds	r3, r3, r1
 8001620:	4661      	mov	r1, ip
 8001622:	0038      	movs	r0, r7
 8001624:	07c9      	lsls	r1, r1, #31
 8001626:	d502      	bpl.n	800162e <HAL_PCD_IRQHandler+0x66a>
 8001628:	4649      	mov	r1, r9
 800162a:	881b      	ldrh	r3, [r3, #0]
 800162c:	700b      	strb	r3, [r1, #0]
 800162e:	6829      	ldr	r1, [r5, #0]
 8001630:	1b13      	subs	r3, r2, r4
 8001632:	4689      	mov	r9, r1
 8001634:	009b      	lsls	r3, r3, #2
 8001636:	18eb      	adds	r3, r5, r3
 8001638:	3309      	adds	r3, #9
 800163a:	33ff      	adds	r3, #255	; 0xff
 800163c:	781b      	ldrb	r3, [r3, #0]
 800163e:	009b      	lsls	r3, r3, #2
 8001640:	4499      	add	r9, r3
 8001642:	e70f      	b.n	8001464 <HAL_PCD_IRQHandler+0x4a0>
 8001644:	0948      	lsrs	r0, r1, #5
 8001646:	b280      	uxth	r0, r0
 8001648:	06c9      	lsls	r1, r1, #27
 800164a:	d101      	bne.n	8001650 <HAL_PCD_IRQHandler+0x68c>
 800164c:	3801      	subs	r0, #1
 800164e:	b280      	uxth	r0, r0
 8001650:	4908      	ldr	r1, [pc, #32]	; (8001674 <HAL_PCD_IRQHandler+0x6b0>)
 8001652:	0280      	lsls	r0, r0, #10
 8001654:	4308      	orrs	r0, r1
 8001656:	8010      	strh	r0, [r2, #0]
 8001658:	e584      	b.n	8001164 <HAL_PCD_IRQHandler+0x1a0>
 800165a:	46c0      	nop			; (mov r8, r8)
 800165c:	ffff8f0f 	.word	0xffff8f0f
 8001660:	00000402 	.word	0x00000402
 8001664:	00000f0f 	.word	0x00000f0f
 8001668:	000080c0 	.word	0x000080c0
 800166c:	00000406 	.word	0x00000406
 8001670:	00000f8f 	.word	0x00000f8f
 8001674:	ffff8000 	.word	0xffff8000
 8001678:	0008      	movs	r0, r1
 800167a:	310f      	adds	r1, #15
 800167c:	31ff      	adds	r1, #255	; 0xff
 800167e:	8809      	ldrh	r1, [r1, #0]
 8001680:	3019      	adds	r0, #25
 8001682:	9100      	str	r1, [sp, #0]
 8001684:	2180      	movs	r1, #128	; 0x80
 8001686:	00c9      	lsls	r1, r1, #3
 8001688:	468a      	mov	sl, r1
 800168a:	30ff      	adds	r0, #255	; 0xff
 800168c:	9900      	ldr	r1, [sp, #0]
 800168e:	6800      	ldr	r0, [r0, #0]
 8001690:	4451      	add	r1, sl
 8001692:	4681      	mov	r9, r0
 8001694:	18cb      	adds	r3, r1, r3
 8001696:	0878      	lsrs	r0, r7, #1
 8001698:	9001      	str	r0, [sp, #4]
 800169a:	9300      	str	r3, [sp, #0]
 800169c:	d0c0      	beq.n	8001620 <HAL_PCD_IRQHandler+0x65c>
 800169e:	9002      	str	r0, [sp, #8]
 80016a0:	4649      	mov	r1, r9
 80016a2:	0018      	movs	r0, r3
 80016a4:	1a40      	subs	r0, r0, r1
 80016a6:	4682      	mov	sl, r0
 80016a8:	0010      	movs	r0, r2
 80016aa:	4652      	mov	r2, sl
 80016ac:	4682      	mov	sl, r0
 80016ae:	9b02      	ldr	r3, [sp, #8]
 80016b0:	5a50      	ldrh	r0, [r2, r1]
 80016b2:	3b01      	subs	r3, #1
 80016b4:	7008      	strb	r0, [r1, #0]
 80016b6:	0a00      	lsrs	r0, r0, #8
 80016b8:	7048      	strb	r0, [r1, #1]
 80016ba:	3102      	adds	r1, #2
 80016bc:	2b00      	cmp	r3, #0
 80016be:	d1f7      	bne.n	80016b0 <HAL_PCD_IRQHandler+0x6ec>
 80016c0:	e7a8      	b.n	8001614 <HAL_PCD_IRQHandler+0x650>
 80016c2:	9e01      	ldr	r6, [sp, #4]
 80016c4:	9902      	ldr	r1, [sp, #8]
 80016c6:	46b1      	mov	r9, r6
 80016c8:	0049      	lsls	r1, r1, #1
 80016ca:	4489      	add	r9, r1
 80016cc:	4661      	mov	r1, ip
 80016ce:	1b89      	subs	r1, r1, r6
 80016d0:	4648      	mov	r0, r9
 80016d2:	469c      	mov	ip, r3
 80016d4:	4691      	mov	r9, r2
 80016d6:	000b      	movs	r3, r1
 80016d8:	9f00      	ldr	r7, [sp, #0]
 80016da:	7871      	ldrb	r1, [r6, #1]
 80016dc:	7832      	ldrb	r2, [r6, #0]
 80016de:	0209      	lsls	r1, r1, #8
 80016e0:	4311      	orrs	r1, r2
 80016e2:	52f1      	strh	r1, [r6, r3]
 80016e4:	3602      	adds	r6, #2
 80016e6:	4286      	cmp	r6, r0
 80016e8:	d1f7      	bne.n	80016da <HAL_PCD_IRQHandler+0x716>
 80016ea:	4663      	mov	r3, ip
 80016ec:	9700      	str	r7, [sp, #0]
 80016ee:	464a      	mov	r2, r9
 80016f0:	e587      	b.n	8001202 <HAL_PCD_IRQHandler+0x23e>
 80016f2:	0028      	movs	r0, r5
 80016f4:	f7ff f9bc 	bl	8000a70 <HAL_PCD_EP_Receive>
 80016f8:	682b      	ldr	r3, [r5, #0]
 80016fa:	e547      	b.n	800118c <HAL_PCD_IRQHandler+0x1c8>
 80016fc:	0008      	movs	r0, r1
 80016fe:	310d      	adds	r1, #13
 8001700:	31ff      	adds	r1, #255	; 0xff
 8001702:	8809      	ldrh	r1, [r1, #0]
 8001704:	3019      	adds	r0, #25
 8001706:	9101      	str	r1, [sp, #4]
 8001708:	2180      	movs	r1, #128	; 0x80
 800170a:	00c9      	lsls	r1, r1, #3
 800170c:	30ff      	adds	r0, #255	; 0xff
 800170e:	468a      	mov	sl, r1
 8001710:	6807      	ldr	r7, [r0, #0]
 8001712:	4660      	mov	r0, ip
 8001714:	9901      	ldr	r1, [sp, #4]
 8001716:	0840      	lsrs	r0, r0, #1
 8001718:	4451      	add	r1, sl
 800171a:	18cb      	adds	r3, r1, r3
 800171c:	9700      	str	r7, [sp, #0]
 800171e:	9002      	str	r0, [sp, #8]
 8001720:	0019      	movs	r1, r3
 8001722:	2800      	cmp	r0, #0
 8001724:	d015      	beq.n	8001752 <HAL_PCD_IRQHandler+0x78e>
 8001726:	0039      	movs	r1, r7
 8001728:	0007      	movs	r7, r0
 800172a:	1a58      	subs	r0, r3, r1
 800172c:	469a      	mov	sl, r3
 800172e:	0003      	movs	r3, r0
 8001730:	5a58      	ldrh	r0, [r3, r1]
 8001732:	3f01      	subs	r7, #1
 8001734:	7008      	strb	r0, [r1, #0]
 8001736:	0a00      	lsrs	r0, r0, #8
 8001738:	7048      	strb	r0, [r1, #1]
 800173a:	3102      	adds	r1, #2
 800173c:	2f00      	cmp	r7, #0
 800173e:	d1f7      	bne.n	8001730 <HAL_PCD_IRQHandler+0x76c>
 8001740:	4653      	mov	r3, sl
 8001742:	9902      	ldr	r1, [sp, #8]
 8001744:	0048      	lsls	r0, r1, #1
 8001746:	1819      	adds	r1, r3, r0
 8001748:	9b00      	ldr	r3, [sp, #0]
 800174a:	469a      	mov	sl, r3
 800174c:	4482      	add	sl, r0
 800174e:	4653      	mov	r3, sl
 8001750:	9300      	str	r3, [sp, #0]
 8001752:	464b      	mov	r3, r9
 8001754:	4660      	mov	r0, ip
 8001756:	07db      	lsls	r3, r3, #31
 8001758:	d400      	bmi.n	800175c <HAL_PCD_IRQHandler+0x798>
 800175a:	e594      	b.n	8001286 <HAL_PCD_IRQHandler+0x2c2>
 800175c:	880b      	ldrh	r3, [r1, #0]
 800175e:	9900      	ldr	r1, [sp, #0]
 8001760:	700b      	strb	r3, [r1, #0]
 8001762:	e590      	b.n	8001286 <HAL_PCD_IRQHandler+0x2c2>
 8001764:	6921      	ldr	r1, [r4, #16]
 8001766:	0852      	lsrs	r2, r2, #1
 8001768:	468c      	mov	ip, r1
 800176a:	2180      	movs	r1, #128	; 0x80
 800176c:	00c9      	lsls	r1, r1, #3
 800176e:	468a      	mov	sl, r1
 8001770:	4691      	mov	r9, r2
 8001772:	88a2      	ldrh	r2, [r4, #4]
 8001774:	4452      	add	r2, sl
 8001776:	18d3      	adds	r3, r2, r3
 8001778:	464a      	mov	r2, r9
 800177a:	2a00      	cmp	r2, #0
 800177c:	d00f      	beq.n	800179e <HAL_PCD_IRQHandler+0x7da>
 800177e:	4661      	mov	r1, ip
 8001780:	464e      	mov	r6, r9
 8001782:	0018      	movs	r0, r3
 8001784:	8802      	ldrh	r2, [r0, #0]
 8001786:	3e01      	subs	r6, #1
 8001788:	700a      	strb	r2, [r1, #0]
 800178a:	0a12      	lsrs	r2, r2, #8
 800178c:	704a      	strb	r2, [r1, #1]
 800178e:	3002      	adds	r0, #2
 8001790:	3102      	adds	r1, #2
 8001792:	2e00      	cmp	r6, #0
 8001794:	d1f6      	bne.n	8001784 <HAL_PCD_IRQHandler+0x7c0>
 8001796:	464a      	mov	r2, r9
 8001798:	0052      	lsls	r2, r2, #1
 800179a:	189b      	adds	r3, r3, r2
 800179c:	4494      	add	ip, r2
 800179e:	07fa      	lsls	r2, r7, #31
 80017a0:	d502      	bpl.n	80017a8 <HAL_PCD_IRQHandler+0x7e4>
 80017a2:	4662      	mov	r2, ip
 80017a4:	881b      	ldrh	r3, [r3, #0]
 80017a6:	7013      	strb	r3, [r2, #0]
 80017a8:	69a2      	ldr	r2, [r4, #24]
 80017aa:	6923      	ldr	r3, [r4, #16]
 80017ac:	4694      	mov	ip, r2
 80017ae:	4463      	add	r3, ip
 80017b0:	6123      	str	r3, [r4, #16]
 80017b2:	e4c1      	b.n	8001138 <HAL_PCD_IRQHandler+0x174>
 80017b4:	6b87      	ldr	r7, [r0, #56]	; 0x38
 80017b6:	8dc6      	ldrh	r6, [r0, #46]	; 0x2e
 80017b8:	2080      	movs	r0, #128	; 0x80
 80017ba:	00c0      	lsls	r0, r0, #3
 80017bc:	4684      	mov	ip, r0
 80017be:	4466      	add	r6, ip
 80017c0:	46b1      	mov	r9, r6
 80017c2:	2600      	movs	r6, #0
 80017c4:	3101      	adds	r1, #1
 80017c6:	4499      	add	r9, r3
 80017c8:	9103      	str	r1, [sp, #12]
 80017ca:	4648      	mov	r0, r9
 80017cc:	0849      	lsrs	r1, r1, #1
 80017ce:	9101      	str	r1, [sp, #4]
 80017d0:	0031      	movs	r1, r6
 80017d2:	3004      	adds	r0, #4
 80017d4:	4287      	cmp	r7, r0
 80017d6:	4171      	adcs	r1, r6
 80017d8:	468c      	mov	ip, r1
 80017da:	1d39      	adds	r1, r7, #4
 80017dc:	468a      	mov	sl, r1
 80017de:	4649      	mov	r1, r9
 80017e0:	4650      	mov	r0, sl
 80017e2:	4281      	cmp	r1, r0
 80017e4:	4176      	adcs	r6, r6
 80017e6:	4660      	mov	r0, ip
 80017e8:	4330      	orrs	r0, r6
 80017ea:	003e      	movs	r6, r7
 80017ec:	430e      	orrs	r6, r1
 80017ee:	46b2      	mov	sl, r6
 80017f0:	2603      	movs	r6, #3
 80017f2:	4651      	mov	r1, sl
 80017f4:	400e      	ands	r6, r1
 80017f6:	4271      	negs	r1, r6
 80017f8:	4171      	adcs	r1, r6
 80017fa:	9702      	str	r7, [sp, #8]
 80017fc:	4201      	tst	r1, r0
 80017fe:	d023      	beq.n	8001848 <HAL_PCD_IRQHandler+0x884>
 8001800:	9901      	ldr	r1, [sp, #4]
 8001802:	290c      	cmp	r1, #12
 8001804:	d920      	bls.n	8001848 <HAL_PCD_IRQHandler+0x884>
 8001806:	4648      	mov	r0, r9
 8001808:	1a3f      	subs	r7, r7, r0
 800180a:	46ba      	mov	sl, r7
 800180c:	469c      	mov	ip, r3
 800180e:	2600      	movs	r6, #0
 8001810:	4653      	mov	r3, sl
 8001812:	9903      	ldr	r1, [sp, #12]
 8001814:	9f00      	ldr	r7, [sp, #0]
 8001816:	0889      	lsrs	r1, r1, #2
 8001818:	9203      	str	r2, [sp, #12]
 800181a:	58c2      	ldr	r2, [r0, r3]
 800181c:	3601      	adds	r6, #1
 800181e:	c004      	stmia	r0!, {r2}
 8001820:	42b1      	cmp	r1, r6
 8001822:	d8fa      	bhi.n	800181a <HAL_PCD_IRQHandler+0x856>
 8001824:	9700      	str	r7, [sp, #0]
 8001826:	9802      	ldr	r0, [sp, #8]
 8001828:	9f01      	ldr	r7, [sp, #4]
 800182a:	004e      	lsls	r6, r1, #1
 800182c:	0089      	lsls	r1, r1, #2
 800182e:	1840      	adds	r0, r0, r1
 8001830:	4663      	mov	r3, ip
 8001832:	9a03      	ldr	r2, [sp, #12]
 8001834:	4449      	add	r1, r9
 8001836:	42b7      	cmp	r7, r6
 8001838:	d100      	bne.n	800183c <HAL_PCD_IRQHandler+0x878>
 800183a:	e4d5      	b.n	80011e8 <HAL_PCD_IRQHandler+0x224>
 800183c:	7806      	ldrb	r6, [r0, #0]
 800183e:	7840      	ldrb	r0, [r0, #1]
 8001840:	0200      	lsls	r0, r0, #8
 8001842:	4330      	orrs	r0, r6
 8001844:	8008      	strh	r0, [r1, #0]
 8001846:	e4cf      	b.n	80011e8 <HAL_PCD_IRQHandler+0x224>
 8001848:	9802      	ldr	r0, [sp, #8]
 800184a:	9901      	ldr	r1, [sp, #4]
 800184c:	4684      	mov	ip, r0
 800184e:	0049      	lsls	r1, r1, #1
 8001850:	448c      	add	ip, r1
 8001852:	4649      	mov	r1, r9
 8001854:	1a09      	subs	r1, r1, r0
 8001856:	4666      	mov	r6, ip
 8001858:	4691      	mov	r9, r2
 800185a:	469c      	mov	ip, r3
 800185c:	000b      	movs	r3, r1
 800185e:	9f00      	ldr	r7, [sp, #0]
 8001860:	7841      	ldrb	r1, [r0, #1]
 8001862:	7802      	ldrb	r2, [r0, #0]
 8001864:	0209      	lsls	r1, r1, #8
 8001866:	4311      	orrs	r1, r2
 8001868:	52c1      	strh	r1, [r0, r3]
 800186a:	3002      	adds	r0, #2
 800186c:	42b0      	cmp	r0, r6
 800186e:	d1f7      	bne.n	8001860 <HAL_PCD_IRQHandler+0x89c>
 8001870:	4663      	mov	r3, ip
 8001872:	9700      	str	r7, [sp, #0]
 8001874:	464a      	mov	r2, r9
 8001876:	e4b7      	b.n	80011e8 <HAL_PCD_IRQHandler+0x224>
 8001878:	9e03      	ldr	r6, [sp, #12]
 800187a:	9901      	ldr	r1, [sp, #4]
 800187c:	46b1      	mov	r9, r6
 800187e:	0049      	lsls	r1, r1, #1
 8001880:	4489      	add	r9, r1
 8001882:	4661      	mov	r1, ip
 8001884:	1b89      	subs	r1, r1, r6
 8001886:	4648      	mov	r0, r9
 8001888:	469c      	mov	ip, r3
 800188a:	4691      	mov	r9, r2
 800188c:	000b      	movs	r3, r1
 800188e:	9f00      	ldr	r7, [sp, #0]
 8001890:	7871      	ldrb	r1, [r6, #1]
 8001892:	7832      	ldrb	r2, [r6, #0]
 8001894:	0209      	lsls	r1, r1, #8
 8001896:	4311      	orrs	r1, r2
 8001898:	52f1      	strh	r1, [r6, r3]
 800189a:	3602      	adds	r6, #2
 800189c:	42b0      	cmp	r0, r6
 800189e:	d1f7      	bne.n	8001890 <HAL_PCD_IRQHandler+0x8cc>
 80018a0:	e7e6      	b.n	8001870 <HAL_PCD_IRQHandler+0x8ac>
 80018a2:	46c0      	nop			; (mov r8, r8)

080018a4 <HAL_PCD_EP_SetStall>:
 80018a4:	23f4      	movs	r3, #244	; 0xf4
 80018a6:	b530      	push	{r4, r5, lr}
 80018a8:	005b      	lsls	r3, r3, #1
 80018aa:	5cc2      	ldrb	r2, [r0, r3]
 80018ac:	2a01      	cmp	r2, #1
 80018ae:	d04a      	beq.n	8001946 <HAL_PCD_EP_SetStall+0xa2>
 80018b0:	2501      	movs	r5, #1
 80018b2:	54c5      	strb	r5, [r0, r3]
 80018b4:	3b6a      	subs	r3, #106	; 0x6a
 80018b6:	3bff      	subs	r3, #255	; 0xff
 80018b8:	b24a      	sxtb	r2, r1
 80018ba:	400b      	ands	r3, r1
 80018bc:	6804      	ldr	r4, [r0, #0]
 80018be:	2a00      	cmp	r2, #0
 80018c0:	db29      	blt.n	8001916 <HAL_PCD_EP_SetStall+0x72>
 80018c2:	00ca      	lsls	r2, r1, #3
 80018c4:	1a51      	subs	r1, r2, r1
 80018c6:	0089      	lsls	r1, r1, #2
 80018c8:	1841      	adds	r1, r0, r1
 80018ca:	000a      	movs	r2, r1
 80018cc:	320b      	adds	r2, #11
 80018ce:	32ff      	adds	r2, #255	; 0xff
 80018d0:	7015      	strb	r5, [r2, #0]
 80018d2:	3a02      	subs	r2, #2
 80018d4:	7013      	strb	r3, [r2, #0]
 80018d6:	2200      	movs	r2, #0
 80018d8:	310a      	adds	r1, #10
 80018da:	31ff      	adds	r1, #255	; 0xff
 80018dc:	700a      	strb	r2, [r1, #0]
 80018de:	2b00      	cmp	r3, #0
 80018e0:	d10d      	bne.n	80018fe <HAL_PCD_EP_SetStall+0x5a>
 80018e2:	8823      	ldrh	r3, [r4, #0]
 80018e4:	4a19      	ldr	r2, [pc, #100]	; (800194c <HAL_PCD_EP_SetStall+0xa8>)
 80018e6:	401a      	ands	r2, r3
 80018e8:	4b19      	ldr	r3, [pc, #100]	; (8001950 <HAL_PCD_EP_SetStall+0xac>)
 80018ea:	4053      	eors	r3, r2
 80018ec:	4a19      	ldr	r2, [pc, #100]	; (8001954 <HAL_PCD_EP_SetStall+0xb0>)
 80018ee:	4313      	orrs	r3, r2
 80018f0:	8023      	strh	r3, [r4, #0]
 80018f2:	23f4      	movs	r3, #244	; 0xf4
 80018f4:	2200      	movs	r2, #0
 80018f6:	005b      	lsls	r3, r3, #1
 80018f8:	54c2      	strb	r2, [r0, r3]
 80018fa:	2000      	movs	r0, #0
 80018fc:	bd30      	pop	{r4, r5, pc}
 80018fe:	009b      	lsls	r3, r3, #2
 8001900:	18e3      	adds	r3, r4, r3
 8001902:	881a      	ldrh	r2, [r3, #0]
 8001904:	4914      	ldr	r1, [pc, #80]	; (8001958 <HAL_PCD_EP_SetStall+0xb4>)
 8001906:	4011      	ands	r1, r2
 8001908:	2280      	movs	r2, #128	; 0x80
 800190a:	0152      	lsls	r2, r2, #5
 800190c:	404a      	eors	r2, r1
 800190e:	4911      	ldr	r1, [pc, #68]	; (8001954 <HAL_PCD_EP_SetStall+0xb0>)
 8001910:	430a      	orrs	r2, r1
 8001912:	801a      	strh	r2, [r3, #0]
 8001914:	e7ed      	b.n	80018f2 <HAL_PCD_EP_SetStall+0x4e>
 8001916:	00da      	lsls	r2, r3, #3
 8001918:	1ad2      	subs	r2, r2, r3
 800191a:	0092      	lsls	r2, r2, #2
 800191c:	1882      	adds	r2, r0, r2
 800191e:	0011      	movs	r1, r2
 8001920:	312a      	adds	r1, #42	; 0x2a
 8001922:	700d      	strb	r5, [r1, #0]
 8001924:	3229      	adds	r2, #41	; 0x29
 8001926:	3902      	subs	r1, #2
 8001928:	700b      	strb	r3, [r1, #0]
 800192a:	7015      	strb	r5, [r2, #0]
 800192c:	2b00      	cmp	r3, #0
 800192e:	d0d8      	beq.n	80018e2 <HAL_PCD_EP_SetStall+0x3e>
 8001930:	009b      	lsls	r3, r3, #2
 8001932:	18e4      	adds	r4, r4, r3
 8001934:	8822      	ldrh	r2, [r4, #0]
 8001936:	4b09      	ldr	r3, [pc, #36]	; (800195c <HAL_PCD_EP_SetStall+0xb8>)
 8001938:	401a      	ands	r2, r3
 800193a:	2310      	movs	r3, #16
 800193c:	405a      	eors	r2, r3
 800193e:	4b05      	ldr	r3, [pc, #20]	; (8001954 <HAL_PCD_EP_SetStall+0xb0>)
 8001940:	431a      	orrs	r2, r3
 8001942:	8022      	strh	r2, [r4, #0]
 8001944:	e7d5      	b.n	80018f2 <HAL_PCD_EP_SetStall+0x4e>
 8001946:	2002      	movs	r0, #2
 8001948:	e7d8      	b.n	80018fc <HAL_PCD_EP_SetStall+0x58>
 800194a:	46c0      	nop			; (mov r8, r8)
 800194c:	ffffbfbf 	.word	0xffffbfbf
 8001950:	00001010 	.word	0x00001010
 8001954:	00008080 	.word	0x00008080
 8001958:	ffffbf8f 	.word	0xffffbf8f
 800195c:	ffff8fbf 	.word	0xffff8fbf

08001960 <HAL_PCD_EP_ClrStall>:
 8001960:	b530      	push	{r4, r5, lr}
 8001962:	247f      	movs	r4, #127	; 0x7f
 8001964:	b24a      	sxtb	r2, r1
 8001966:	400c      	ands	r4, r1
 8001968:	2a00      	cmp	r2, #0
 800196a:	db4b      	blt.n	8001a04 <HAL_PCD_EP_ClrStall+0xa4>
 800196c:	00cb      	lsls	r3, r1, #3
 800196e:	1a59      	subs	r1, r3, r1
 8001970:	0089      	lsls	r1, r1, #2
 8001972:	3109      	adds	r1, #9
 8001974:	31ff      	adds	r1, #255	; 0xff
 8001976:	1841      	adds	r1, r0, r1
 8001978:	2300      	movs	r3, #0
 800197a:	0fd2      	lsrs	r2, r2, #31
 800197c:	708b      	strb	r3, [r1, #2]
 800197e:	33e9      	adds	r3, #233	; 0xe9
 8001980:	700c      	strb	r4, [r1, #0]
 8001982:	704a      	strb	r2, [r1, #1]
 8001984:	33ff      	adds	r3, #255	; 0xff
 8001986:	5cc2      	ldrb	r2, [r0, r3]
 8001988:	2a01      	cmp	r2, #1
 800198a:	d041      	beq.n	8001a10 <HAL_PCD_EP_ClrStall+0xb0>
 800198c:	2201      	movs	r2, #1
 800198e:	54c2      	strb	r2, [r0, r3]
 8001990:	784b      	ldrb	r3, [r1, #1]
 8001992:	6802      	ldr	r2, [r0, #0]
 8001994:	2b00      	cmp	r3, #0
 8001996:	d11d      	bne.n	80019d4 <HAL_PCD_EP_ClrStall+0x74>
 8001998:	780b      	ldrb	r3, [r1, #0]
 800199a:	009b      	lsls	r3, r3, #2
 800199c:	18d3      	adds	r3, r2, r3
 800199e:	881c      	ldrh	r4, [r3, #0]
 80019a0:	0464      	lsls	r4, r4, #17
 80019a2:	d508      	bpl.n	80019b6 <HAL_PCD_EP_ClrStall+0x56>
 80019a4:	881c      	ldrh	r4, [r3, #0]
 80019a6:	4d1b      	ldr	r5, [pc, #108]	; (8001a14 <HAL_PCD_EP_ClrStall+0xb4>)
 80019a8:	402c      	ands	r4, r5
 80019aa:	4d1b      	ldr	r5, [pc, #108]	; (8001a18 <HAL_PCD_EP_ClrStall+0xb8>)
 80019ac:	432c      	orrs	r4, r5
 80019ae:	801c      	strh	r4, [r3, #0]
 80019b0:	780b      	ldrb	r3, [r1, #0]
 80019b2:	009b      	lsls	r3, r3, #2
 80019b4:	18d3      	adds	r3, r2, r3
 80019b6:	881a      	ldrh	r2, [r3, #0]
 80019b8:	4918      	ldr	r1, [pc, #96]	; (8001a1c <HAL_PCD_EP_ClrStall+0xbc>)
 80019ba:	4011      	ands	r1, r2
 80019bc:	22c0      	movs	r2, #192	; 0xc0
 80019be:	0192      	lsls	r2, r2, #6
 80019c0:	404a      	eors	r2, r1
 80019c2:	4917      	ldr	r1, [pc, #92]	; (8001a20 <HAL_PCD_EP_ClrStall+0xc0>)
 80019c4:	430a      	orrs	r2, r1
 80019c6:	801a      	strh	r2, [r3, #0]
 80019c8:	23f4      	movs	r3, #244	; 0xf4
 80019ca:	2200      	movs	r2, #0
 80019cc:	005b      	lsls	r3, r3, #1
 80019ce:	54c2      	strb	r2, [r0, r3]
 80019d0:	2000      	movs	r0, #0
 80019d2:	bd30      	pop	{r4, r5, pc}
 80019d4:	780b      	ldrb	r3, [r1, #0]
 80019d6:	009b      	lsls	r3, r3, #2
 80019d8:	18d3      	adds	r3, r2, r3
 80019da:	881c      	ldrh	r4, [r3, #0]
 80019dc:	0664      	lsls	r4, r4, #25
 80019de:	d508      	bpl.n	80019f2 <HAL_PCD_EP_ClrStall+0x92>
 80019e0:	881c      	ldrh	r4, [r3, #0]
 80019e2:	4d0c      	ldr	r5, [pc, #48]	; (8001a14 <HAL_PCD_EP_ClrStall+0xb4>)
 80019e4:	402c      	ands	r4, r5
 80019e6:	4d0f      	ldr	r5, [pc, #60]	; (8001a24 <HAL_PCD_EP_ClrStall+0xc4>)
 80019e8:	432c      	orrs	r4, r5
 80019ea:	801c      	strh	r4, [r3, #0]
 80019ec:	780b      	ldrb	r3, [r1, #0]
 80019ee:	009b      	lsls	r3, r3, #2
 80019f0:	18d3      	adds	r3, r2, r3
 80019f2:	881a      	ldrh	r2, [r3, #0]
 80019f4:	490c      	ldr	r1, [pc, #48]	; (8001a28 <HAL_PCD_EP_ClrStall+0xc8>)
 80019f6:	400a      	ands	r2, r1
 80019f8:	2130      	movs	r1, #48	; 0x30
 80019fa:	404a      	eors	r2, r1
 80019fc:	4908      	ldr	r1, [pc, #32]	; (8001a20 <HAL_PCD_EP_ClrStall+0xc0>)
 80019fe:	430a      	orrs	r2, r1
 8001a00:	801a      	strh	r2, [r3, #0]
 8001a02:	e7e1      	b.n	80019c8 <HAL_PCD_EP_ClrStall+0x68>
 8001a04:	00e1      	lsls	r1, r4, #3
 8001a06:	1b09      	subs	r1, r1, r4
 8001a08:	0089      	lsls	r1, r1, #2
 8001a0a:	3128      	adds	r1, #40	; 0x28
 8001a0c:	1841      	adds	r1, r0, r1
 8001a0e:	e7b3      	b.n	8001978 <HAL_PCD_EP_ClrStall+0x18>
 8001a10:	2002      	movs	r0, #2
 8001a12:	e7de      	b.n	80019d2 <HAL_PCD_EP_ClrStall+0x72>
 8001a14:	00000f0f 	.word	0x00000f0f
 8001a18:	0000c080 	.word	0x0000c080
 8001a1c:	ffffbf8f 	.word	0xffffbf8f
 8001a20:	00008080 	.word	0x00008080
 8001a24:	000080c0 	.word	0x000080c0
 8001a28:	ffff8fbf 	.word	0xffff8fbf

08001a2c <HAL_PCDEx_PMAConfig>:
 8001a2c:	b510      	push	{r4, lr}
 8001a2e:	060c      	lsls	r4, r1, #24
 8001a30:	d510      	bpl.n	8001a54 <HAL_PCDEx_PMAConfig+0x28>
 8001a32:	247f      	movs	r4, #127	; 0x7f
 8001a34:	4021      	ands	r1, r4
 8001a36:	00cc      	lsls	r4, r1, #3
 8001a38:	1a61      	subs	r1, r4, r1
 8001a3a:	0089      	lsls	r1, r1, #2
 8001a3c:	3128      	adds	r1, #40	; 0x28
 8001a3e:	1840      	adds	r0, r0, r1
 8001a40:	b299      	uxth	r1, r3
 8001a42:	2a00      	cmp	r2, #0
 8001a44:	d00f      	beq.n	8001a66 <HAL_PCDEx_PMAConfig+0x3a>
 8001a46:	0c1b      	lsrs	r3, r3, #16
 8001a48:	8103      	strh	r3, [r0, #8]
 8001a4a:	2301      	movs	r3, #1
 8001a4c:	80c1      	strh	r1, [r0, #6]
 8001a4e:	7283      	strb	r3, [r0, #10]
 8001a50:	2000      	movs	r0, #0
 8001a52:	bd10      	pop	{r4, pc}
 8001a54:	00cc      	lsls	r4, r1, #3
 8001a56:	1a61      	subs	r1, r4, r1
 8001a58:	0089      	lsls	r1, r1, #2
 8001a5a:	3109      	adds	r1, #9
 8001a5c:	31ff      	adds	r1, #255	; 0xff
 8001a5e:	1840      	adds	r0, r0, r1
 8001a60:	b299      	uxth	r1, r3
 8001a62:	2a00      	cmp	r2, #0
 8001a64:	d1ef      	bne.n	8001a46 <HAL_PCDEx_PMAConfig+0x1a>
 8001a66:	8081      	strh	r1, [r0, #4]
 8001a68:	2300      	movs	r3, #0
 8001a6a:	e7f0      	b.n	8001a4e <HAL_PCDEx_PMAConfig+0x22>

08001a6c <HAL_RCC_OscConfig>:
 8001a6c:	b5f0      	push	{r4, r5, r6, r7, lr}
 8001a6e:	46ce      	mov	lr, r9
 8001a70:	4647      	mov	r7, r8
 8001a72:	b580      	push	{r7, lr}
 8001a74:	6803      	ldr	r3, [r0, #0]
 8001a76:	b083      	sub	sp, #12
 8001a78:	0004      	movs	r4, r0
 8001a7a:	07da      	lsls	r2, r3, #31
 8001a7c:	d52f      	bpl.n	8001ade <HAL_RCC_OscConfig+0x72>
 8001a7e:	210c      	movs	r1, #12
 8001a80:	48c5      	ldr	r0, [pc, #788]	; (8001d98 <HAL_RCC_OscConfig+0x32c>)
 8001a82:	6842      	ldr	r2, [r0, #4]
 8001a84:	400a      	ands	r2, r1
 8001a86:	2a04      	cmp	r2, #4
 8001a88:	d100      	bne.n	8001a8c <HAL_RCC_OscConfig+0x20>
 8001a8a:	e104      	b.n	8001c96 <HAL_RCC_OscConfig+0x22a>
 8001a8c:	6842      	ldr	r2, [r0, #4]
 8001a8e:	4011      	ands	r1, r2
 8001a90:	2908      	cmp	r1, #8
 8001a92:	d100      	bne.n	8001a96 <HAL_RCC_OscConfig+0x2a>
 8001a94:	e0f6      	b.n	8001c84 <HAL_RCC_OscConfig+0x218>
 8001a96:	6863      	ldr	r3, [r4, #4]
 8001a98:	2b01      	cmp	r3, #1
 8001a9a:	d100      	bne.n	8001a9e <HAL_RCC_OscConfig+0x32>
 8001a9c:	e135      	b.n	8001d0a <HAL_RCC_OscConfig+0x29e>
 8001a9e:	2b00      	cmp	r3, #0
 8001aa0:	d100      	bne.n	8001aa4 <HAL_RCC_OscConfig+0x38>
 8001aa2:	e169      	b.n	8001d78 <HAL_RCC_OscConfig+0x30c>
 8001aa4:	2b05      	cmp	r3, #5
 8001aa6:	d100      	bne.n	8001aaa <HAL_RCC_OscConfig+0x3e>
 8001aa8:	e228      	b.n	8001efc <HAL_RCC_OscConfig+0x490>
 8001aaa:	4bbb      	ldr	r3, [pc, #748]	; (8001d98 <HAL_RCC_OscConfig+0x32c>)
 8001aac:	49bb      	ldr	r1, [pc, #748]	; (8001d9c <HAL_RCC_OscConfig+0x330>)
 8001aae:	681a      	ldr	r2, [r3, #0]
 8001ab0:	400a      	ands	r2, r1
 8001ab2:	601a      	str	r2, [r3, #0]
 8001ab4:	681a      	ldr	r2, [r3, #0]
 8001ab6:	49ba      	ldr	r1, [pc, #744]	; (8001da0 <HAL_RCC_OscConfig+0x334>)
 8001ab8:	400a      	ands	r2, r1
 8001aba:	601a      	str	r2, [r3, #0]
 8001abc:	f7fe fbda 	bl	8000274 <HAL_GetTick>
 8001ac0:	2580      	movs	r5, #128	; 0x80
 8001ac2:	0007      	movs	r7, r0
 8001ac4:	4eb4      	ldr	r6, [pc, #720]	; (8001d98 <HAL_RCC_OscConfig+0x32c>)
 8001ac6:	02ad      	lsls	r5, r5, #10
 8001ac8:	e005      	b.n	8001ad6 <HAL_RCC_OscConfig+0x6a>
 8001aca:	f7fe fbd3 	bl	8000274 <HAL_GetTick>
 8001ace:	1bc0      	subs	r0, r0, r7
 8001ad0:	2864      	cmp	r0, #100	; 0x64
 8001ad2:	d900      	bls.n	8001ad6 <HAL_RCC_OscConfig+0x6a>
 8001ad4:	e14e      	b.n	8001d74 <HAL_RCC_OscConfig+0x308>
 8001ad6:	6833      	ldr	r3, [r6, #0]
 8001ad8:	422b      	tst	r3, r5
 8001ada:	d0f6      	beq.n	8001aca <HAL_RCC_OscConfig+0x5e>
 8001adc:	6823      	ldr	r3, [r4, #0]
 8001ade:	079a      	lsls	r2, r3, #30
 8001ae0:	d529      	bpl.n	8001b36 <HAL_RCC_OscConfig+0xca>
 8001ae2:	220c      	movs	r2, #12
 8001ae4:	49ac      	ldr	r1, [pc, #688]	; (8001d98 <HAL_RCC_OscConfig+0x32c>)
 8001ae6:	6848      	ldr	r0, [r1, #4]
 8001ae8:	4202      	tst	r2, r0
 8001aea:	d100      	bne.n	8001aee <HAL_RCC_OscConfig+0x82>
 8001aec:	e0e7      	b.n	8001cbe <HAL_RCC_OscConfig+0x252>
 8001aee:	6848      	ldr	r0, [r1, #4]
 8001af0:	4002      	ands	r2, r0
 8001af2:	2a08      	cmp	r2, #8
 8001af4:	d100      	bne.n	8001af8 <HAL_RCC_OscConfig+0x8c>
 8001af6:	e0d9      	b.n	8001cac <HAL_RCC_OscConfig+0x240>
 8001af8:	68e3      	ldr	r3, [r4, #12]
 8001afa:	2b00      	cmp	r3, #0
 8001afc:	d100      	bne.n	8001b00 <HAL_RCC_OscConfig+0x94>
 8001afe:	e17b      	b.n	8001df8 <HAL_RCC_OscConfig+0x38c>
 8001b00:	2201      	movs	r2, #1
 8001b02:	4fa5      	ldr	r7, [pc, #660]	; (8001d98 <HAL_RCC_OscConfig+0x32c>)
 8001b04:	2502      	movs	r5, #2
 8001b06:	683b      	ldr	r3, [r7, #0]
 8001b08:	4313      	orrs	r3, r2
 8001b0a:	603b      	str	r3, [r7, #0]
 8001b0c:	f7fe fbb2 	bl	8000274 <HAL_GetTick>
 8001b10:	0006      	movs	r6, r0
 8001b12:	e005      	b.n	8001b20 <HAL_RCC_OscConfig+0xb4>
 8001b14:	f7fe fbae 	bl	8000274 <HAL_GetTick>
 8001b18:	1b80      	subs	r0, r0, r6
 8001b1a:	2802      	cmp	r0, #2
 8001b1c:	d900      	bls.n	8001b20 <HAL_RCC_OscConfig+0xb4>
 8001b1e:	e129      	b.n	8001d74 <HAL_RCC_OscConfig+0x308>
 8001b20:	683b      	ldr	r3, [r7, #0]
 8001b22:	421d      	tst	r5, r3
 8001b24:	d0f6      	beq.n	8001b14 <HAL_RCC_OscConfig+0xa8>
 8001b26:	21f8      	movs	r1, #248	; 0xf8
 8001b28:	683a      	ldr	r2, [r7, #0]
 8001b2a:	6923      	ldr	r3, [r4, #16]
 8001b2c:	438a      	bics	r2, r1
 8001b2e:	00db      	lsls	r3, r3, #3
 8001b30:	4313      	orrs	r3, r2
 8001b32:	603b      	str	r3, [r7, #0]
 8001b34:	6823      	ldr	r3, [r4, #0]
 8001b36:	071a      	lsls	r2, r3, #28
 8001b38:	d42b      	bmi.n	8001b92 <HAL_RCC_OscConfig+0x126>
 8001b3a:	075a      	lsls	r2, r3, #29
 8001b3c:	d543      	bpl.n	8001bc6 <HAL_RCC_OscConfig+0x15a>
 8001b3e:	2280      	movs	r2, #128	; 0x80
 8001b40:	4b95      	ldr	r3, [pc, #596]	; (8001d98 <HAL_RCC_OscConfig+0x32c>)
 8001b42:	0552      	lsls	r2, r2, #21
 8001b44:	69d9      	ldr	r1, [r3, #28]
 8001b46:	2500      	movs	r5, #0
 8001b48:	4211      	tst	r1, r2
 8001b4a:	d107      	bne.n	8001b5c <HAL_RCC_OscConfig+0xf0>
 8001b4c:	69d9      	ldr	r1, [r3, #28]
 8001b4e:	3501      	adds	r5, #1
 8001b50:	4311      	orrs	r1, r2
 8001b52:	61d9      	str	r1, [r3, #28]
 8001b54:	69db      	ldr	r3, [r3, #28]
 8001b56:	401a      	ands	r2, r3
 8001b58:	9201      	str	r2, [sp, #4]
 8001b5a:	9b01      	ldr	r3, [sp, #4]
 8001b5c:	2680      	movs	r6, #128	; 0x80
 8001b5e:	4f91      	ldr	r7, [pc, #580]	; (8001da4 <HAL_RCC_OscConfig+0x338>)
 8001b60:	0076      	lsls	r6, r6, #1
 8001b62:	683b      	ldr	r3, [r7, #0]
 8001b64:	4233      	tst	r3, r6
 8001b66:	d100      	bne.n	8001b6a <HAL_RCC_OscConfig+0xfe>
 8001b68:	e0d6      	b.n	8001d18 <HAL_RCC_OscConfig+0x2ac>
 8001b6a:	68a3      	ldr	r3, [r4, #8]
 8001b6c:	2b01      	cmp	r3, #1
 8001b6e:	d100      	bne.n	8001b72 <HAL_RCC_OscConfig+0x106>
 8001b70:	e0e3      	b.n	8001d3a <HAL_RCC_OscConfig+0x2ce>
 8001b72:	2b00      	cmp	r3, #0
 8001b74:	d100      	bne.n	8001b78 <HAL_RCC_OscConfig+0x10c>
 8001b76:	e125      	b.n	8001dc4 <HAL_RCC_OscConfig+0x358>
 8001b78:	2b05      	cmp	r3, #5
 8001b7a:	d100      	bne.n	8001b7e <HAL_RCC_OscConfig+0x112>
 8001b7c:	e195      	b.n	8001eaa <HAL_RCC_OscConfig+0x43e>
 8001b7e:	2101      	movs	r1, #1
 8001b80:	4b85      	ldr	r3, [pc, #532]	; (8001d98 <HAL_RCC_OscConfig+0x32c>)
 8001b82:	6a1a      	ldr	r2, [r3, #32]
 8001b84:	438a      	bics	r2, r1
 8001b86:	621a      	str	r2, [r3, #32]
 8001b88:	6a1a      	ldr	r2, [r3, #32]
 8001b8a:	3103      	adds	r1, #3
 8001b8c:	438a      	bics	r2, r1
 8001b8e:	621a      	str	r2, [r3, #32]
 8001b90:	e0d7      	b.n	8001d42 <HAL_RCC_OscConfig+0x2d6>
 8001b92:	69e3      	ldr	r3, [r4, #28]
 8001b94:	4d80      	ldr	r5, [pc, #512]	; (8001d98 <HAL_RCC_OscConfig+0x32c>)
 8001b96:	2b00      	cmp	r3, #0
 8001b98:	d100      	bne.n	8001b9c <HAL_RCC_OscConfig+0x130>
 8001b9a:	e0a3      	b.n	8001ce4 <HAL_RCC_OscConfig+0x278>
 8001b9c:	2201      	movs	r2, #1
 8001b9e:	6a6b      	ldr	r3, [r5, #36]	; 0x24
 8001ba0:	2602      	movs	r6, #2
 8001ba2:	4313      	orrs	r3, r2
 8001ba4:	626b      	str	r3, [r5, #36]	; 0x24
 8001ba6:	f7fe fb65 	bl	8000274 <HAL_GetTick>
 8001baa:	0007      	movs	r7, r0
 8001bac:	e005      	b.n	8001bba <HAL_RCC_OscConfig+0x14e>
 8001bae:	f7fe fb61 	bl	8000274 <HAL_GetTick>
 8001bb2:	1bc0      	subs	r0, r0, r7
 8001bb4:	2802      	cmp	r0, #2
 8001bb6:	d900      	bls.n	8001bba <HAL_RCC_OscConfig+0x14e>
 8001bb8:	e0dc      	b.n	8001d74 <HAL_RCC_OscConfig+0x308>
 8001bba:	6a6b      	ldr	r3, [r5, #36]	; 0x24
 8001bbc:	421e      	tst	r6, r3
 8001bbe:	d0f6      	beq.n	8001bae <HAL_RCC_OscConfig+0x142>
 8001bc0:	6823      	ldr	r3, [r4, #0]
 8001bc2:	075a      	lsls	r2, r3, #29
 8001bc4:	d4bb      	bmi.n	8001b3e <HAL_RCC_OscConfig+0xd2>
 8001bc6:	06da      	lsls	r2, r3, #27
 8001bc8:	d512      	bpl.n	8001bf0 <HAL_RCC_OscConfig+0x184>
 8001bca:	6962      	ldr	r2, [r4, #20]
 8001bcc:	2a01      	cmp	r2, #1
 8001bce:	d100      	bne.n	8001bd2 <HAL_RCC_OscConfig+0x166>
 8001bd0:	e175      	b.n	8001ebe <HAL_RCC_OscConfig+0x452>
 8001bd2:	3205      	adds	r2, #5
 8001bd4:	d000      	beq.n	8001bd8 <HAL_RCC_OscConfig+0x16c>
 8001bd6:	e123      	b.n	8001e20 <HAL_RCC_OscConfig+0x3b4>
 8001bd8:	2004      	movs	r0, #4
 8001bda:	25f8      	movs	r5, #248	; 0xf8
 8001bdc:	496e      	ldr	r1, [pc, #440]	; (8001d98 <HAL_RCC_OscConfig+0x32c>)
 8001bde:	6b4a      	ldr	r2, [r1, #52]	; 0x34
 8001be0:	4382      	bics	r2, r0
 8001be2:	634a      	str	r2, [r1, #52]	; 0x34
 8001be4:	6b48      	ldr	r0, [r1, #52]	; 0x34
 8001be6:	69a2      	ldr	r2, [r4, #24]
 8001be8:	43a8      	bics	r0, r5
 8001bea:	00d2      	lsls	r2, r2, #3
 8001bec:	4302      	orrs	r2, r0
 8001bee:	634a      	str	r2, [r1, #52]	; 0x34
 8001bf0:	069b      	lsls	r3, r3, #26
 8001bf2:	d522      	bpl.n	8001c3a <HAL_RCC_OscConfig+0x1ce>
 8001bf4:	220c      	movs	r2, #12
 8001bf6:	4968      	ldr	r1, [pc, #416]	; (8001d98 <HAL_RCC_OscConfig+0x32c>)
 8001bf8:	684b      	ldr	r3, [r1, #4]
 8001bfa:	4013      	ands	r3, r2
 8001bfc:	2b0c      	cmp	r3, #12
 8001bfe:	d100      	bne.n	8001c02 <HAL_RCC_OscConfig+0x196>
 8001c00:	e12d      	b.n	8001e5e <HAL_RCC_OscConfig+0x3f2>
 8001c02:	684b      	ldr	r3, [r1, #4]
 8001c04:	401a      	ands	r2, r3
 8001c06:	2a08      	cmp	r2, #8
 8001c08:	d100      	bne.n	8001c0c <HAL_RCC_OscConfig+0x1a0>
 8001c0a:	e121      	b.n	8001e50 <HAL_RCC_OscConfig+0x3e4>
 8001c0c:	6a23      	ldr	r3, [r4, #32]
 8001c0e:	4d62      	ldr	r5, [pc, #392]	; (8001d98 <HAL_RCC_OscConfig+0x32c>)
 8001c10:	2b00      	cmp	r3, #0
 8001c12:	d100      	bne.n	8001c16 <HAL_RCC_OscConfig+0x1aa>
 8001c14:	e12e      	b.n	8001e74 <HAL_RCC_OscConfig+0x408>
 8001c16:	2680      	movs	r6, #128	; 0x80
 8001c18:	6b6b      	ldr	r3, [r5, #52]	; 0x34
 8001c1a:	0276      	lsls	r6, r6, #9
 8001c1c:	4333      	orrs	r3, r6
 8001c1e:	636b      	str	r3, [r5, #52]	; 0x34
 8001c20:	f7fe fb28 	bl	8000274 <HAL_GetTick>
 8001c24:	0007      	movs	r7, r0
 8001c26:	e005      	b.n	8001c34 <HAL_RCC_OscConfig+0x1c8>
 8001c28:	f7fe fb24 	bl	8000274 <HAL_GetTick>
 8001c2c:	1bc0      	subs	r0, r0, r7
 8001c2e:	2802      	cmp	r0, #2
 8001c30:	d900      	bls.n	8001c34 <HAL_RCC_OscConfig+0x1c8>
 8001c32:	e09f      	b.n	8001d74 <HAL_RCC_OscConfig+0x308>
 8001c34:	6b6b      	ldr	r3, [r5, #52]	; 0x34
 8001c36:	4233      	tst	r3, r6
 8001c38:	d0f6      	beq.n	8001c28 <HAL_RCC_OscConfig+0x1bc>
 8001c3a:	6a63      	ldr	r3, [r4, #36]	; 0x24
 8001c3c:	2b00      	cmp	r3, #0
 8001c3e:	d01b      	beq.n	8001c78 <HAL_RCC_OscConfig+0x20c>
 8001c40:	220c      	movs	r2, #12
 8001c42:	4d55      	ldr	r5, [pc, #340]	; (8001d98 <HAL_RCC_OscConfig+0x32c>)
 8001c44:	6869      	ldr	r1, [r5, #4]
 8001c46:	400a      	ands	r2, r1
 8001c48:	2a08      	cmp	r2, #8
 8001c4a:	d02d      	beq.n	8001ca8 <HAL_RCC_OscConfig+0x23c>
 8001c4c:	2b02      	cmp	r3, #2
 8001c4e:	d100      	bne.n	8001c52 <HAL_RCC_OscConfig+0x1e6>
 8001c50:	e160      	b.n	8001f14 <HAL_RCC_OscConfig+0x4a8>
 8001c52:	682b      	ldr	r3, [r5, #0]
 8001c54:	4a54      	ldr	r2, [pc, #336]	; (8001da8 <HAL_RCC_OscConfig+0x33c>)
 8001c56:	2480      	movs	r4, #128	; 0x80
 8001c58:	4013      	ands	r3, r2
 8001c5a:	602b      	str	r3, [r5, #0]
 8001c5c:	f7fe fb0a 	bl	8000274 <HAL_GetTick>
 8001c60:	04a4      	lsls	r4, r4, #18
 8001c62:	0006      	movs	r6, r0
 8001c64:	e005      	b.n	8001c72 <HAL_RCC_OscConfig+0x206>
 8001c66:	f7fe fb05 	bl	8000274 <HAL_GetTick>
 8001c6a:	1b80      	subs	r0, r0, r6
 8001c6c:	2802      	cmp	r0, #2
 8001c6e:	d900      	bls.n	8001c72 <HAL_RCC_OscConfig+0x206>
 8001c70:	e080      	b.n	8001d74 <HAL_RCC_OscConfig+0x308>
 8001c72:	682b      	ldr	r3, [r5, #0]
 8001c74:	4223      	tst	r3, r4
 8001c76:	d1f6      	bne.n	8001c66 <HAL_RCC_OscConfig+0x1fa>
 8001c78:	2000      	movs	r0, #0
 8001c7a:	b003      	add	sp, #12
 8001c7c:	bc0c      	pop	{r2, r3}
 8001c7e:	4690      	mov	r8, r2
 8001c80:	4699      	mov	r9, r3
 8001c82:	bdf0      	pop	{r4, r5, r6, r7, pc}
 8001c84:	21c0      	movs	r1, #192	; 0xc0
 8001c86:	6842      	ldr	r2, [r0, #4]
 8001c88:	0249      	lsls	r1, r1, #9
 8001c8a:	400a      	ands	r2, r1
 8001c8c:	2180      	movs	r1, #128	; 0x80
 8001c8e:	0249      	lsls	r1, r1, #9
 8001c90:	428a      	cmp	r2, r1
 8001c92:	d000      	beq.n	8001c96 <HAL_RCC_OscConfig+0x22a>
 8001c94:	e6ff      	b.n	8001a96 <HAL_RCC_OscConfig+0x2a>
 8001c96:	4a40      	ldr	r2, [pc, #256]	; (8001d98 <HAL_RCC_OscConfig+0x32c>)
 8001c98:	6812      	ldr	r2, [r2, #0]
 8001c9a:	0392      	lsls	r2, r2, #14
 8001c9c:	d400      	bmi.n	8001ca0 <HAL_RCC_OscConfig+0x234>
 8001c9e:	e71e      	b.n	8001ade <HAL_RCC_OscConfig+0x72>
 8001ca0:	6862      	ldr	r2, [r4, #4]
 8001ca2:	2a00      	cmp	r2, #0
 8001ca4:	d000      	beq.n	8001ca8 <HAL_RCC_OscConfig+0x23c>
 8001ca6:	e71a      	b.n	8001ade <HAL_RCC_OscConfig+0x72>
 8001ca8:	2001      	movs	r0, #1
 8001caa:	e7e6      	b.n	8001c7a <HAL_RCC_OscConfig+0x20e>
 8001cac:	684a      	ldr	r2, [r1, #4]
 8001cae:	21c0      	movs	r1, #192	; 0xc0
 8001cb0:	0249      	lsls	r1, r1, #9
 8001cb2:	400a      	ands	r2, r1
 8001cb4:	2180      	movs	r1, #128	; 0x80
 8001cb6:	0209      	lsls	r1, r1, #8
 8001cb8:	428a      	cmp	r2, r1
 8001cba:	d000      	beq.n	8001cbe <HAL_RCC_OscConfig+0x252>
 8001cbc:	e71c      	b.n	8001af8 <HAL_RCC_OscConfig+0x8c>
 8001cbe:	4a36      	ldr	r2, [pc, #216]	; (8001d98 <HAL_RCC_OscConfig+0x32c>)
 8001cc0:	6812      	ldr	r2, [r2, #0]
 8001cc2:	0792      	lsls	r2, r2, #30
 8001cc4:	d502      	bpl.n	8001ccc <HAL_RCC_OscConfig+0x260>
 8001cc6:	68e2      	ldr	r2, [r4, #12]
 8001cc8:	2a01      	cmp	r2, #1
 8001cca:	d1ed      	bne.n	8001ca8 <HAL_RCC_OscConfig+0x23c>
 8001ccc:	25f8      	movs	r5, #248	; 0xf8
 8001cce:	4832      	ldr	r0, [pc, #200]	; (8001d98 <HAL_RCC_OscConfig+0x32c>)
 8001cd0:	6922      	ldr	r2, [r4, #16]
 8001cd2:	6801      	ldr	r1, [r0, #0]
 8001cd4:	00d2      	lsls	r2, r2, #3
 8001cd6:	43a9      	bics	r1, r5
 8001cd8:	430a      	orrs	r2, r1
 8001cda:	6002      	str	r2, [r0, #0]
 8001cdc:	071a      	lsls	r2, r3, #28
 8001cde:	d400      	bmi.n	8001ce2 <HAL_RCC_OscConfig+0x276>
 8001ce0:	e72b      	b.n	8001b3a <HAL_RCC_OscConfig+0xce>
 8001ce2:	e756      	b.n	8001b92 <HAL_RCC_OscConfig+0x126>
 8001ce4:	2201      	movs	r2, #1
 8001ce6:	6a6b      	ldr	r3, [r5, #36]	; 0x24
 8001ce8:	2602      	movs	r6, #2
 8001cea:	4393      	bics	r3, r2
 8001cec:	626b      	str	r3, [r5, #36]	; 0x24
 8001cee:	f7fe fac1 	bl	8000274 <HAL_GetTick>
 8001cf2:	0007      	movs	r7, r0
 8001cf4:	e004      	b.n	8001d00 <HAL_RCC_OscConfig+0x294>
 8001cf6:	f7fe fabd 	bl	8000274 <HAL_GetTick>
 8001cfa:	1bc0      	subs	r0, r0, r7
 8001cfc:	2802      	cmp	r0, #2
 8001cfe:	d839      	bhi.n	8001d74 <HAL_RCC_OscConfig+0x308>
 8001d00:	6a6b      	ldr	r3, [r5, #36]	; 0x24
 8001d02:	421e      	tst	r6, r3
 8001d04:	d1f7      	bne.n	8001cf6 <HAL_RCC_OscConfig+0x28a>
 8001d06:	6823      	ldr	r3, [r4, #0]
 8001d08:	e75b      	b.n	8001bc2 <HAL_RCC_OscConfig+0x156>
 8001d0a:	2380      	movs	r3, #128	; 0x80
 8001d0c:	4a22      	ldr	r2, [pc, #136]	; (8001d98 <HAL_RCC_OscConfig+0x32c>)
 8001d0e:	025b      	lsls	r3, r3, #9
 8001d10:	6811      	ldr	r1, [r2, #0]
 8001d12:	430b      	orrs	r3, r1
 8001d14:	6013      	str	r3, [r2, #0]
 8001d16:	e6d1      	b.n	8001abc <HAL_RCC_OscConfig+0x50>
 8001d18:	683b      	ldr	r3, [r7, #0]
 8001d1a:	4333      	orrs	r3, r6
 8001d1c:	603b      	str	r3, [r7, #0]
 8001d1e:	f7fe faa9 	bl	8000274 <HAL_GetTick>
 8001d22:	4680      	mov	r8, r0
 8001d24:	e005      	b.n	8001d32 <HAL_RCC_OscConfig+0x2c6>
 8001d26:	f7fe faa5 	bl	8000274 <HAL_GetTick>
 8001d2a:	4643      	mov	r3, r8
 8001d2c:	1ac0      	subs	r0, r0, r3
 8001d2e:	2864      	cmp	r0, #100	; 0x64
 8001d30:	d820      	bhi.n	8001d74 <HAL_RCC_OscConfig+0x308>
 8001d32:	683b      	ldr	r3, [r7, #0]
 8001d34:	4233      	tst	r3, r6
 8001d36:	d0f6      	beq.n	8001d26 <HAL_RCC_OscConfig+0x2ba>
 8001d38:	e717      	b.n	8001b6a <HAL_RCC_OscConfig+0xfe>
 8001d3a:	4917      	ldr	r1, [pc, #92]	; (8001d98 <HAL_RCC_OscConfig+0x32c>)
 8001d3c:	6a0a      	ldr	r2, [r1, #32]
 8001d3e:	4313      	orrs	r3, r2
 8001d40:	620b      	str	r3, [r1, #32]
 8001d42:	f7fe fa97 	bl	8000274 <HAL_GetTick>
 8001d46:	4b19      	ldr	r3, [pc, #100]	; (8001dac <HAL_RCC_OscConfig+0x340>)
 8001d48:	4681      	mov	r9, r0
 8001d4a:	4f13      	ldr	r7, [pc, #76]	; (8001d98 <HAL_RCC_OscConfig+0x32c>)
 8001d4c:	2602      	movs	r6, #2
 8001d4e:	4698      	mov	r8, r3
 8001d50:	e005      	b.n	8001d5e <HAL_RCC_OscConfig+0x2f2>
 8001d52:	f7fe fa8f 	bl	8000274 <HAL_GetTick>
 8001d56:	464b      	mov	r3, r9
 8001d58:	1ac0      	subs	r0, r0, r3
 8001d5a:	4540      	cmp	r0, r8
 8001d5c:	d80a      	bhi.n	8001d74 <HAL_RCC_OscConfig+0x308>
 8001d5e:	6a3b      	ldr	r3, [r7, #32]
 8001d60:	421e      	tst	r6, r3
 8001d62:	d0f6      	beq.n	8001d52 <HAL_RCC_OscConfig+0x2e6>
 8001d64:	2d01      	cmp	r5, #1
 8001d66:	d100      	bne.n	8001d6a <HAL_RCC_OscConfig+0x2fe>
 8001d68:	e098      	b.n	8001e9c <HAL_RCC_OscConfig+0x430>
 8001d6a:	6823      	ldr	r3, [r4, #0]
 8001d6c:	06da      	lsls	r2, r3, #27
 8001d6e:	d400      	bmi.n	8001d72 <HAL_RCC_OscConfig+0x306>
 8001d70:	e73e      	b.n	8001bf0 <HAL_RCC_OscConfig+0x184>
 8001d72:	e72a      	b.n	8001bca <HAL_RCC_OscConfig+0x15e>
 8001d74:	2003      	movs	r0, #3
 8001d76:	e780      	b.n	8001c7a <HAL_RCC_OscConfig+0x20e>
 8001d78:	4d07      	ldr	r5, [pc, #28]	; (8001d98 <HAL_RCC_OscConfig+0x32c>)
 8001d7a:	4a08      	ldr	r2, [pc, #32]	; (8001d9c <HAL_RCC_OscConfig+0x330>)
 8001d7c:	682b      	ldr	r3, [r5, #0]
 8001d7e:	2680      	movs	r6, #128	; 0x80
 8001d80:	4013      	ands	r3, r2
 8001d82:	602b      	str	r3, [r5, #0]
 8001d84:	682b      	ldr	r3, [r5, #0]
 8001d86:	4a06      	ldr	r2, [pc, #24]	; (8001da0 <HAL_RCC_OscConfig+0x334>)
 8001d88:	02b6      	lsls	r6, r6, #10
 8001d8a:	4013      	ands	r3, r2
 8001d8c:	602b      	str	r3, [r5, #0]
 8001d8e:	f7fe fa71 	bl	8000274 <HAL_GetTick>
 8001d92:	0007      	movs	r7, r0
 8001d94:	e011      	b.n	8001dba <HAL_RCC_OscConfig+0x34e>
 8001d96:	46c0      	nop			; (mov r8, r8)
 8001d98:	40021000 	.word	0x40021000
 8001d9c:	fffeffff 	.word	0xfffeffff
 8001da0:	fffbffff 	.word	0xfffbffff
 8001da4:	40007000 	.word	0x40007000
 8001da8:	feffffff 	.word	0xfeffffff
 8001dac:	00001388 	.word	0x00001388
 8001db0:	f7fe fa60 	bl	8000274 <HAL_GetTick>
 8001db4:	1bc0      	subs	r0, r0, r7
 8001db6:	2864      	cmp	r0, #100	; 0x64
 8001db8:	d8dc      	bhi.n	8001d74 <HAL_RCC_OscConfig+0x308>
 8001dba:	682b      	ldr	r3, [r5, #0]
 8001dbc:	4233      	tst	r3, r6
 8001dbe:	d1f7      	bne.n	8001db0 <HAL_RCC_OscConfig+0x344>
 8001dc0:	6823      	ldr	r3, [r4, #0]
 8001dc2:	e68c      	b.n	8001ade <HAL_RCC_OscConfig+0x72>
 8001dc4:	2201      	movs	r2, #1
 8001dc6:	4e6f      	ldr	r6, [pc, #444]	; (8001f84 <HAL_RCC_OscConfig+0x518>)
 8001dc8:	2702      	movs	r7, #2
 8001dca:	6a33      	ldr	r3, [r6, #32]
 8001dcc:	4393      	bics	r3, r2
 8001dce:	6233      	str	r3, [r6, #32]
 8001dd0:	6a33      	ldr	r3, [r6, #32]
 8001dd2:	3203      	adds	r2, #3
 8001dd4:	4393      	bics	r3, r2
 8001dd6:	6233      	str	r3, [r6, #32]
 8001dd8:	f7fe fa4c 	bl	8000274 <HAL_GetTick>
 8001ddc:	4b6a      	ldr	r3, [pc, #424]	; (8001f88 <HAL_RCC_OscConfig+0x51c>)
 8001dde:	4681      	mov	r9, r0
 8001de0:	4698      	mov	r8, r3
 8001de2:	e005      	b.n	8001df0 <HAL_RCC_OscConfig+0x384>
 8001de4:	f7fe fa46 	bl	8000274 <HAL_GetTick>
 8001de8:	464b      	mov	r3, r9
 8001dea:	1ac0      	subs	r0, r0, r3
 8001dec:	4540      	cmp	r0, r8
 8001dee:	d8c1      	bhi.n	8001d74 <HAL_RCC_OscConfig+0x308>
 8001df0:	6a33      	ldr	r3, [r6, #32]
 8001df2:	421f      	tst	r7, r3
 8001df4:	d1f6      	bne.n	8001de4 <HAL_RCC_OscConfig+0x378>
 8001df6:	e7b5      	b.n	8001d64 <HAL_RCC_OscConfig+0x2f8>
 8001df8:	2201      	movs	r2, #1
 8001dfa:	4d62      	ldr	r5, [pc, #392]	; (8001f84 <HAL_RCC_OscConfig+0x518>)
 8001dfc:	2602      	movs	r6, #2
 8001dfe:	682b      	ldr	r3, [r5, #0]
 8001e00:	4393      	bics	r3, r2
 8001e02:	602b      	str	r3, [r5, #0]
 8001e04:	f7fe fa36 	bl	8000274 <HAL_GetTick>
 8001e08:	0007      	movs	r7, r0
 8001e0a:	e004      	b.n	8001e16 <HAL_RCC_OscConfig+0x3aa>
 8001e0c:	f7fe fa32 	bl	8000274 <HAL_GetTick>
 8001e10:	1bc0      	subs	r0, r0, r7
 8001e12:	2802      	cmp	r0, #2
 8001e14:	d8ae      	bhi.n	8001d74 <HAL_RCC_OscConfig+0x308>
 8001e16:	682b      	ldr	r3, [r5, #0]
 8001e18:	421e      	tst	r6, r3
 8001e1a:	d1f7      	bne.n	8001e0c <HAL_RCC_OscConfig+0x3a0>
 8001e1c:	6823      	ldr	r3, [r4, #0]
 8001e1e:	e68a      	b.n	8001b36 <HAL_RCC_OscConfig+0xca>
 8001e20:	2204      	movs	r2, #4
 8001e22:	4d58      	ldr	r5, [pc, #352]	; (8001f84 <HAL_RCC_OscConfig+0x518>)
 8001e24:	2602      	movs	r6, #2
 8001e26:	6b6b      	ldr	r3, [r5, #52]	; 0x34
 8001e28:	4313      	orrs	r3, r2
 8001e2a:	636b      	str	r3, [r5, #52]	; 0x34
 8001e2c:	6b6b      	ldr	r3, [r5, #52]	; 0x34
 8001e2e:	3a03      	subs	r2, #3
 8001e30:	4393      	bics	r3, r2
 8001e32:	636b      	str	r3, [r5, #52]	; 0x34
 8001e34:	f7fe fa1e 	bl	8000274 <HAL_GetTick>
 8001e38:	0007      	movs	r7, r0
 8001e3a:	e004      	b.n	8001e46 <HAL_RCC_OscConfig+0x3da>
 8001e3c:	f7fe fa1a 	bl	8000274 <HAL_GetTick>
 8001e40:	1bc0      	subs	r0, r0, r7
 8001e42:	2802      	cmp	r0, #2
 8001e44:	d896      	bhi.n	8001d74 <HAL_RCC_OscConfig+0x308>
 8001e46:	6b6b      	ldr	r3, [r5, #52]	; 0x34
 8001e48:	421e      	tst	r6, r3
 8001e4a:	d1f7      	bne.n	8001e3c <HAL_RCC_OscConfig+0x3d0>
 8001e4c:	6823      	ldr	r3, [r4, #0]
 8001e4e:	e6cf      	b.n	8001bf0 <HAL_RCC_OscConfig+0x184>
 8001e50:	22c0      	movs	r2, #192	; 0xc0
 8001e52:	684b      	ldr	r3, [r1, #4]
 8001e54:	0252      	lsls	r2, r2, #9
 8001e56:	4013      	ands	r3, r2
 8001e58:	4293      	cmp	r3, r2
 8001e5a:	d000      	beq.n	8001e5e <HAL_RCC_OscConfig+0x3f2>
 8001e5c:	e6d6      	b.n	8001c0c <HAL_RCC_OscConfig+0x1a0>
 8001e5e:	4b49      	ldr	r3, [pc, #292]	; (8001f84 <HAL_RCC_OscConfig+0x518>)
 8001e60:	6b5b      	ldr	r3, [r3, #52]	; 0x34
 8001e62:	03db      	lsls	r3, r3, #15
 8001e64:	d400      	bmi.n	8001e68 <HAL_RCC_OscConfig+0x3fc>
 8001e66:	e6e8      	b.n	8001c3a <HAL_RCC_OscConfig+0x1ce>
 8001e68:	6a23      	ldr	r3, [r4, #32]
 8001e6a:	2b01      	cmp	r3, #1
 8001e6c:	d100      	bne.n	8001e70 <HAL_RCC_OscConfig+0x404>
 8001e6e:	e6e4      	b.n	8001c3a <HAL_RCC_OscConfig+0x1ce>
 8001e70:	2001      	movs	r0, #1
 8001e72:	e702      	b.n	8001c7a <HAL_RCC_OscConfig+0x20e>
 8001e74:	6b6b      	ldr	r3, [r5, #52]	; 0x34
 8001e76:	4a45      	ldr	r2, [pc, #276]	; (8001f8c <HAL_RCC_OscConfig+0x520>)
 8001e78:	2680      	movs	r6, #128	; 0x80
 8001e7a:	4013      	ands	r3, r2
 8001e7c:	636b      	str	r3, [r5, #52]	; 0x34
 8001e7e:	f7fe f9f9 	bl	8000274 <HAL_GetTick>
 8001e82:	0276      	lsls	r6, r6, #9
 8001e84:	0007      	movs	r7, r0
 8001e86:	e005      	b.n	8001e94 <HAL_RCC_OscConfig+0x428>
 8001e88:	f7fe f9f4 	bl	8000274 <HAL_GetTick>
 8001e8c:	1bc0      	subs	r0, r0, r7
 8001e8e:	2802      	cmp	r0, #2
 8001e90:	d900      	bls.n	8001e94 <HAL_RCC_OscConfig+0x428>
 8001e92:	e76f      	b.n	8001d74 <HAL_RCC_OscConfig+0x308>
 8001e94:	6b6b      	ldr	r3, [r5, #52]	; 0x34
 8001e96:	4233      	tst	r3, r6
 8001e98:	d1f6      	bne.n	8001e88 <HAL_RCC_OscConfig+0x41c>
 8001e9a:	e6ce      	b.n	8001c3a <HAL_RCC_OscConfig+0x1ce>
 8001e9c:	4a39      	ldr	r2, [pc, #228]	; (8001f84 <HAL_RCC_OscConfig+0x518>)
 8001e9e:	493c      	ldr	r1, [pc, #240]	; (8001f90 <HAL_RCC_OscConfig+0x524>)
 8001ea0:	69d3      	ldr	r3, [r2, #28]
 8001ea2:	400b      	ands	r3, r1
 8001ea4:	61d3      	str	r3, [r2, #28]
 8001ea6:	6823      	ldr	r3, [r4, #0]
 8001ea8:	e760      	b.n	8001d6c <HAL_RCC_OscConfig+0x300>
 8001eaa:	2104      	movs	r1, #4
 8001eac:	4b35      	ldr	r3, [pc, #212]	; (8001f84 <HAL_RCC_OscConfig+0x518>)
 8001eae:	6a1a      	ldr	r2, [r3, #32]
 8001eb0:	430a      	orrs	r2, r1
 8001eb2:	621a      	str	r2, [r3, #32]
 8001eb4:	6a1a      	ldr	r2, [r3, #32]
 8001eb6:	3903      	subs	r1, #3
 8001eb8:	430a      	orrs	r2, r1
 8001eba:	621a      	str	r2, [r3, #32]
 8001ebc:	e741      	b.n	8001d42 <HAL_RCC_OscConfig+0x2d6>
 8001ebe:	2104      	movs	r1, #4
 8001ec0:	4d30      	ldr	r5, [pc, #192]	; (8001f84 <HAL_RCC_OscConfig+0x518>)
 8001ec2:	2602      	movs	r6, #2
 8001ec4:	6b6b      	ldr	r3, [r5, #52]	; 0x34
 8001ec6:	430b      	orrs	r3, r1
 8001ec8:	636b      	str	r3, [r5, #52]	; 0x34
 8001eca:	6b6b      	ldr	r3, [r5, #52]	; 0x34
 8001ecc:	431a      	orrs	r2, r3
 8001ece:	636a      	str	r2, [r5, #52]	; 0x34
 8001ed0:	f7fe f9d0 	bl	8000274 <HAL_GetTick>
 8001ed4:	0007      	movs	r7, r0
 8001ed6:	e005      	b.n	8001ee4 <HAL_RCC_OscConfig+0x478>
 8001ed8:	f7fe f9cc 	bl	8000274 <HAL_GetTick>
 8001edc:	1bc0      	subs	r0, r0, r7
 8001ede:	2802      	cmp	r0, #2
 8001ee0:	d900      	bls.n	8001ee4 <HAL_RCC_OscConfig+0x478>
 8001ee2:	e747      	b.n	8001d74 <HAL_RCC_OscConfig+0x308>
 8001ee4:	6b6b      	ldr	r3, [r5, #52]	; 0x34
 8001ee6:	421e      	tst	r6, r3
 8001ee8:	d0f6      	beq.n	8001ed8 <HAL_RCC_OscConfig+0x46c>
 8001eea:	21f8      	movs	r1, #248	; 0xf8
 8001eec:	6b6a      	ldr	r2, [r5, #52]	; 0x34
 8001eee:	69a3      	ldr	r3, [r4, #24]
 8001ef0:	438a      	bics	r2, r1
 8001ef2:	00db      	lsls	r3, r3, #3
 8001ef4:	4313      	orrs	r3, r2
 8001ef6:	636b      	str	r3, [r5, #52]	; 0x34
 8001ef8:	6823      	ldr	r3, [r4, #0]
 8001efa:	e679      	b.n	8001bf0 <HAL_RCC_OscConfig+0x184>
 8001efc:	2280      	movs	r2, #128	; 0x80
 8001efe:	4b21      	ldr	r3, [pc, #132]	; (8001f84 <HAL_RCC_OscConfig+0x518>)
 8001f00:	02d2      	lsls	r2, r2, #11
 8001f02:	6819      	ldr	r1, [r3, #0]
 8001f04:	430a      	orrs	r2, r1
 8001f06:	601a      	str	r2, [r3, #0]
 8001f08:	2280      	movs	r2, #128	; 0x80
 8001f0a:	6819      	ldr	r1, [r3, #0]
 8001f0c:	0252      	lsls	r2, r2, #9
 8001f0e:	430a      	orrs	r2, r1
 8001f10:	601a      	str	r2, [r3, #0]
 8001f12:	e5d3      	b.n	8001abc <HAL_RCC_OscConfig+0x50>
 8001f14:	682b      	ldr	r3, [r5, #0]
 8001f16:	4a1f      	ldr	r2, [pc, #124]	; (8001f94 <HAL_RCC_OscConfig+0x528>)
 8001f18:	2680      	movs	r6, #128	; 0x80
 8001f1a:	4013      	ands	r3, r2
 8001f1c:	602b      	str	r3, [r5, #0]
 8001f1e:	f7fe f9a9 	bl	8000274 <HAL_GetTick>
 8001f22:	04b6      	lsls	r6, r6, #18
 8001f24:	0007      	movs	r7, r0
 8001f26:	e005      	b.n	8001f34 <HAL_RCC_OscConfig+0x4c8>
 8001f28:	f7fe f9a4 	bl	8000274 <HAL_GetTick>
 8001f2c:	1bc0      	subs	r0, r0, r7
 8001f2e:	2802      	cmp	r0, #2
 8001f30:	d900      	bls.n	8001f34 <HAL_RCC_OscConfig+0x4c8>
 8001f32:	e71f      	b.n	8001d74 <HAL_RCC_OscConfig+0x308>
 8001f34:	682b      	ldr	r3, [r5, #0]
 8001f36:	4233      	tst	r3, r6
 8001f38:	d1f6      	bne.n	8001f28 <HAL_RCC_OscConfig+0x4bc>
 8001f3a:	220f      	movs	r2, #15
 8001f3c:	6aeb      	ldr	r3, [r5, #44]	; 0x2c
 8001f3e:	4393      	bics	r3, r2
 8001f40:	6b22      	ldr	r2, [r4, #48]	; 0x30
 8001f42:	4313      	orrs	r3, r2
 8001f44:	62eb      	str	r3, [r5, #44]	; 0x2c
 8001f46:	6aa1      	ldr	r1, [r4, #40]	; 0x28
 8001f48:	6ae3      	ldr	r3, [r4, #44]	; 0x2c
 8001f4a:	686a      	ldr	r2, [r5, #4]
 8001f4c:	430b      	orrs	r3, r1
 8001f4e:	4912      	ldr	r1, [pc, #72]	; (8001f98 <HAL_RCC_OscConfig+0x52c>)
 8001f50:	2480      	movs	r4, #128	; 0x80
 8001f52:	400a      	ands	r2, r1
 8001f54:	4313      	orrs	r3, r2
 8001f56:	606b      	str	r3, [r5, #4]
 8001f58:	2380      	movs	r3, #128	; 0x80
 8001f5a:	682a      	ldr	r2, [r5, #0]
 8001f5c:	045b      	lsls	r3, r3, #17
 8001f5e:	4313      	orrs	r3, r2
 8001f60:	602b      	str	r3, [r5, #0]
 8001f62:	f7fe f987 	bl	8000274 <HAL_GetTick>
 8001f66:	4d07      	ldr	r5, [pc, #28]	; (8001f84 <HAL_RCC_OscConfig+0x518>)
 8001f68:	0006      	movs	r6, r0
 8001f6a:	04a4      	lsls	r4, r4, #18
 8001f6c:	e005      	b.n	8001f7a <HAL_RCC_OscConfig+0x50e>
 8001f6e:	f7fe f981 	bl	8000274 <HAL_GetTick>
 8001f72:	1b80      	subs	r0, r0, r6
 8001f74:	2802      	cmp	r0, #2
 8001f76:	d900      	bls.n	8001f7a <HAL_RCC_OscConfig+0x50e>
 8001f78:	e6fc      	b.n	8001d74 <HAL_RCC_OscConfig+0x308>
 8001f7a:	682b      	ldr	r3, [r5, #0]
 8001f7c:	4223      	tst	r3, r4
 8001f7e:	d0f6      	beq.n	8001f6e <HAL_RCC_OscConfig+0x502>
 8001f80:	e67a      	b.n	8001c78 <HAL_RCC_OscConfig+0x20c>
 8001f82:	46c0      	nop			; (mov r8, r8)
 8001f84:	40021000 	.word	0x40021000
 8001f88:	00001388 	.word	0x00001388
 8001f8c:	fffeffff 	.word	0xfffeffff
 8001f90:	efffffff 	.word	0xefffffff
 8001f94:	feffffff 	.word	0xfeffffff
 8001f98:	ffc27fff 	.word	0xffc27fff

08001f9c <HAL_RCC_ClockConfig>:
 8001f9c:	b5f0      	push	{r4, r5, r6, r7, lr}
 8001f9e:	46ce      	mov	lr, r9
 8001fa0:	4647      	mov	r7, r8
 8001fa2:	2301      	movs	r3, #1
 8001fa4:	b580      	push	{r7, lr}
 8001fa6:	000c      	movs	r4, r1
 8001fa8:	4974      	ldr	r1, [pc, #464]	; (800217c <HAL_RCC_ClockConfig+0x1e0>)
 8001faa:	b089      	sub	sp, #36	; 0x24
 8001fac:	680a      	ldr	r2, [r1, #0]
 8001fae:	0005      	movs	r5, r0
 8001fb0:	401a      	ands	r2, r3
 8001fb2:	42a2      	cmp	r2, r4
 8001fb4:	d20d      	bcs.n	8001fd2 <HAL_RCC_ClockConfig+0x36>
 8001fb6:	680a      	ldr	r2, [r1, #0]
 8001fb8:	439a      	bics	r2, r3
 8001fba:	4322      	orrs	r2, r4
 8001fbc:	600a      	str	r2, [r1, #0]
 8001fbe:	680a      	ldr	r2, [r1, #0]
 8001fc0:	4013      	ands	r3, r2
 8001fc2:	42a3      	cmp	r3, r4
 8001fc4:	d005      	beq.n	8001fd2 <HAL_RCC_ClockConfig+0x36>
 8001fc6:	2001      	movs	r0, #1
 8001fc8:	b009      	add	sp, #36	; 0x24
 8001fca:	bc0c      	pop	{r2, r3}
 8001fcc:	4690      	mov	r8, r2
 8001fce:	4699      	mov	r9, r3
 8001fd0:	bdf0      	pop	{r4, r5, r6, r7, pc}
 8001fd2:	682b      	ldr	r3, [r5, #0]
 8001fd4:	079a      	lsls	r2, r3, #30
 8001fd6:	d506      	bpl.n	8001fe6 <HAL_RCC_ClockConfig+0x4a>
 8001fd8:	20f0      	movs	r0, #240	; 0xf0
 8001fda:	4969      	ldr	r1, [pc, #420]	; (8002180 <HAL_RCC_ClockConfig+0x1e4>)
 8001fdc:	684a      	ldr	r2, [r1, #4]
 8001fde:	4382      	bics	r2, r0
 8001fe0:	68a8      	ldr	r0, [r5, #8]
 8001fe2:	4302      	orrs	r2, r0
 8001fe4:	604a      	str	r2, [r1, #4]
 8001fe6:	07db      	lsls	r3, r3, #31
 8001fe8:	d52b      	bpl.n	8002042 <HAL_RCC_ClockConfig+0xa6>
 8001fea:	686b      	ldr	r3, [r5, #4]
 8001fec:	4a64      	ldr	r2, [pc, #400]	; (8002180 <HAL_RCC_ClockConfig+0x1e4>)
 8001fee:	2b01      	cmp	r3, #1
 8001ff0:	d06e      	beq.n	80020d0 <HAL_RCC_ClockConfig+0x134>
 8001ff2:	2b02      	cmp	r3, #2
 8001ff4:	d068      	beq.n	80020c8 <HAL_RCC_ClockConfig+0x12c>
 8001ff6:	2b03      	cmp	r3, #3
 8001ff8:	d100      	bne.n	8001ffc <HAL_RCC_ClockConfig+0x60>
 8001ffa:	e094      	b.n	8002126 <HAL_RCC_ClockConfig+0x18a>
 8001ffc:	6812      	ldr	r2, [r2, #0]
 8001ffe:	0792      	lsls	r2, r2, #30
 8002000:	d5e1      	bpl.n	8001fc6 <HAL_RCC_ClockConfig+0x2a>
 8002002:	2103      	movs	r1, #3
 8002004:	4e5e      	ldr	r6, [pc, #376]	; (8002180 <HAL_RCC_ClockConfig+0x1e4>)
 8002006:	6872      	ldr	r2, [r6, #4]
 8002008:	438a      	bics	r2, r1
 800200a:	4313      	orrs	r3, r2
 800200c:	6073      	str	r3, [r6, #4]
 800200e:	f7fe f931 	bl	8000274 <HAL_GetTick>
 8002012:	686b      	ldr	r3, [r5, #4]
 8002014:	0007      	movs	r7, r0
 8002016:	2b01      	cmp	r3, #1
 8002018:	d075      	beq.n	8002106 <HAL_RCC_ClockConfig+0x16a>
 800201a:	2b02      	cmp	r3, #2
 800201c:	d100      	bne.n	8002020 <HAL_RCC_ClockConfig+0x84>
 800201e:	e087      	b.n	8002130 <HAL_RCC_ClockConfig+0x194>
 8002020:	2b03      	cmp	r3, #3
 8002022:	d100      	bne.n	8002026 <HAL_RCC_ClockConfig+0x8a>
 8002024:	e094      	b.n	8002150 <HAL_RCC_ClockConfig+0x1b4>
 8002026:	230c      	movs	r3, #12
 8002028:	4698      	mov	r8, r3
 800202a:	4b56      	ldr	r3, [pc, #344]	; (8002184 <HAL_RCC_ClockConfig+0x1e8>)
 800202c:	4699      	mov	r9, r3
 800202e:	e004      	b.n	800203a <HAL_RCC_ClockConfig+0x9e>
 8002030:	f7fe f920 	bl	8000274 <HAL_GetTick>
 8002034:	1bc0      	subs	r0, r0, r7
 8002036:	4548      	cmp	r0, r9
 8002038:	d863      	bhi.n	8002102 <HAL_RCC_ClockConfig+0x166>
 800203a:	4642      	mov	r2, r8
 800203c:	6873      	ldr	r3, [r6, #4]
 800203e:	421a      	tst	r2, r3
 8002040:	d1f6      	bne.n	8002030 <HAL_RCC_ClockConfig+0x94>
 8002042:	2101      	movs	r1, #1
 8002044:	4a4d      	ldr	r2, [pc, #308]	; (800217c <HAL_RCC_ClockConfig+0x1e0>)
 8002046:	6813      	ldr	r3, [r2, #0]
 8002048:	400b      	ands	r3, r1
 800204a:	42a3      	cmp	r3, r4
 800204c:	d905      	bls.n	800205a <HAL_RCC_ClockConfig+0xbe>
 800204e:	6813      	ldr	r3, [r2, #0]
 8002050:	438b      	bics	r3, r1
 8002052:	6013      	str	r3, [r2, #0]
 8002054:	6813      	ldr	r3, [r2, #0]
 8002056:	4219      	tst	r1, r3
 8002058:	d1b5      	bne.n	8001fc6 <HAL_RCC_ClockConfig+0x2a>
 800205a:	682b      	ldr	r3, [r5, #0]
 800205c:	075b      	lsls	r3, r3, #29
 800205e:	d42b      	bmi.n	80020b8 <HAL_RCC_ClockConfig+0x11c>
 8002060:	4669      	mov	r1, sp
 8002062:	4b49      	ldr	r3, [pc, #292]	; (8002188 <HAL_RCC_ClockConfig+0x1ec>)
 8002064:	000a      	movs	r2, r1
 8002066:	0018      	movs	r0, r3
 8002068:	c870      	ldmia	r0!, {r4, r5, r6}
 800206a:	c270      	stmia	r2!, {r4, r5, r6}
 800206c:	6800      	ldr	r0, [r0, #0]
 800206e:	3310      	adds	r3, #16
 8002070:	6010      	str	r0, [r2, #0]
 8002072:	aa04      	add	r2, sp, #16
 8002074:	0010      	movs	r0, r2
 8002076:	cb70      	ldmia	r3!, {r4, r5, r6}
 8002078:	c070      	stmia	r0!, {r4, r5, r6}
 800207a:	681b      	ldr	r3, [r3, #0]
 800207c:	4d40      	ldr	r5, [pc, #256]	; (8002180 <HAL_RCC_ClockConfig+0x1e4>)
 800207e:	6003      	str	r3, [r0, #0]
 8002080:	200c      	movs	r0, #12
 8002082:	686b      	ldr	r3, [r5, #4]
 8002084:	4018      	ands	r0, r3
 8002086:	2808      	cmp	r0, #8
 8002088:	d026      	beq.n	80020d8 <HAL_RCC_ClockConfig+0x13c>
 800208a:	380c      	subs	r0, #12
 800208c:	4243      	negs	r3, r0
 800208e:	4158      	adcs	r0, r3
 8002090:	4b3e      	ldr	r3, [pc, #248]	; (800218c <HAL_RCC_ClockConfig+0x1f0>)
 8002092:	4240      	negs	r0, r0
 8002094:	4018      	ands	r0, r3
 8002096:	4b3e      	ldr	r3, [pc, #248]	; (8002190 <HAL_RCC_ClockConfig+0x1f4>)
 8002098:	469c      	mov	ip, r3
 800209a:	4460      	add	r0, ip
 800209c:	4b38      	ldr	r3, [pc, #224]	; (8002180 <HAL_RCC_ClockConfig+0x1e4>)
 800209e:	4a3d      	ldr	r2, [pc, #244]	; (8002194 <HAL_RCC_ClockConfig+0x1f8>)
 80020a0:	685b      	ldr	r3, [r3, #4]
 80020a2:	061b      	lsls	r3, r3, #24
 80020a4:	0f1b      	lsrs	r3, r3, #28
 80020a6:	5cd3      	ldrb	r3, [r2, r3]
 80020a8:	40d8      	lsrs	r0, r3
 80020aa:	4b3b      	ldr	r3, [pc, #236]	; (8002198 <HAL_RCC_ClockConfig+0x1fc>)
 80020ac:	6018      	str	r0, [r3, #0]
 80020ae:	2000      	movs	r0, #0
 80020b0:	f7fe f8b6 	bl	8000220 <HAL_InitTick>
 80020b4:	2000      	movs	r0, #0
 80020b6:	e787      	b.n	8001fc8 <HAL_RCC_ClockConfig+0x2c>
 80020b8:	4a31      	ldr	r2, [pc, #196]	; (8002180 <HAL_RCC_ClockConfig+0x1e4>)
 80020ba:	4938      	ldr	r1, [pc, #224]	; (800219c <HAL_RCC_ClockConfig+0x200>)
 80020bc:	6853      	ldr	r3, [r2, #4]
 80020be:	400b      	ands	r3, r1
 80020c0:	68e9      	ldr	r1, [r5, #12]
 80020c2:	430b      	orrs	r3, r1
 80020c4:	6053      	str	r3, [r2, #4]
 80020c6:	e7cb      	b.n	8002060 <HAL_RCC_ClockConfig+0xc4>
 80020c8:	6812      	ldr	r2, [r2, #0]
 80020ca:	0192      	lsls	r2, r2, #6
 80020cc:	d499      	bmi.n	8002002 <HAL_RCC_ClockConfig+0x66>
 80020ce:	e77a      	b.n	8001fc6 <HAL_RCC_ClockConfig+0x2a>
 80020d0:	6812      	ldr	r2, [r2, #0]
 80020d2:	0392      	lsls	r2, r2, #14
 80020d4:	d495      	bmi.n	8002002 <HAL_RCC_ClockConfig+0x66>
 80020d6:	e776      	b.n	8001fc6 <HAL_RCC_ClockConfig+0x2a>
 80020d8:	200f      	movs	r0, #15
 80020da:	0c9c      	lsrs	r4, r3, #18
 80020dc:	4004      	ands	r4, r0
 80020de:	5d0c      	ldrb	r4, [r1, r4]
 80020e0:	6ae9      	ldr	r1, [r5, #44]	; 0x2c
 80020e2:	4008      	ands	r0, r1
 80020e4:	5c11      	ldrb	r1, [r2, r0]
 80020e6:	22c0      	movs	r2, #192	; 0xc0
 80020e8:	2080      	movs	r0, #128	; 0x80
 80020ea:	0252      	lsls	r2, r2, #9
 80020ec:	4013      	ands	r3, r2
 80020ee:	0240      	lsls	r0, r0, #9
 80020f0:	4283      	cmp	r3, r0
 80020f2:	d001      	beq.n	80020f8 <HAL_RCC_ClockConfig+0x15c>
 80020f4:	4293      	cmp	r3, r2
 80020f6:	d03b      	beq.n	8002170 <HAL_RCC_ClockConfig+0x1d4>
 80020f8:	4825      	ldr	r0, [pc, #148]	; (8002190 <HAL_RCC_ClockConfig+0x1f4>)
 80020fa:	f7fe f805 	bl	8000108 <__udivsi3>
 80020fe:	4360      	muls	r0, r4
 8002100:	e7cc      	b.n	800209c <HAL_RCC_ClockConfig+0x100>
 8002102:	2003      	movs	r0, #3
 8002104:	e760      	b.n	8001fc8 <HAL_RCC_ClockConfig+0x2c>
 8002106:	330b      	adds	r3, #11
 8002108:	4698      	mov	r8, r3
 800210a:	4b1e      	ldr	r3, [pc, #120]	; (8002184 <HAL_RCC_ClockConfig+0x1e8>)
 800210c:	4699      	mov	r9, r3
 800210e:	e004      	b.n	800211a <HAL_RCC_ClockConfig+0x17e>
 8002110:	f7fe f8b0 	bl	8000274 <HAL_GetTick>
 8002114:	1bc0      	subs	r0, r0, r7
 8002116:	4548      	cmp	r0, r9
 8002118:	d8f3      	bhi.n	8002102 <HAL_RCC_ClockConfig+0x166>
 800211a:	4642      	mov	r2, r8
 800211c:	6873      	ldr	r3, [r6, #4]
 800211e:	4013      	ands	r3, r2
 8002120:	2b04      	cmp	r3, #4
 8002122:	d1f5      	bne.n	8002110 <HAL_RCC_ClockConfig+0x174>
 8002124:	e78d      	b.n	8002042 <HAL_RCC_ClockConfig+0xa6>
 8002126:	6b52      	ldr	r2, [r2, #52]	; 0x34
 8002128:	03d2      	lsls	r2, r2, #15
 800212a:	d500      	bpl.n	800212e <HAL_RCC_ClockConfig+0x192>
 800212c:	e769      	b.n	8002002 <HAL_RCC_ClockConfig+0x66>
 800212e:	e74a      	b.n	8001fc6 <HAL_RCC_ClockConfig+0x2a>
 8002130:	330a      	adds	r3, #10
 8002132:	4698      	mov	r8, r3
 8002134:	4b13      	ldr	r3, [pc, #76]	; (8002184 <HAL_RCC_ClockConfig+0x1e8>)
 8002136:	4699      	mov	r9, r3
 8002138:	e004      	b.n	8002144 <HAL_RCC_ClockConfig+0x1a8>
 800213a:	f7fe f89b 	bl	8000274 <HAL_GetTick>
 800213e:	1bc0      	subs	r0, r0, r7
 8002140:	4548      	cmp	r0, r9
 8002142:	d8de      	bhi.n	8002102 <HAL_RCC_ClockConfig+0x166>
 8002144:	4642      	mov	r2, r8
 8002146:	6873      	ldr	r3, [r6, #4]
 8002148:	4013      	ands	r3, r2
 800214a:	2b08      	cmp	r3, #8
 800214c:	d1f5      	bne.n	800213a <HAL_RCC_ClockConfig+0x19e>
 800214e:	e778      	b.n	8002042 <HAL_RCC_ClockConfig+0xa6>
 8002150:	3309      	adds	r3, #9
 8002152:	4698      	mov	r8, r3
 8002154:	4b0b      	ldr	r3, [pc, #44]	; (8002184 <HAL_RCC_ClockConfig+0x1e8>)
 8002156:	4699      	mov	r9, r3
 8002158:	e004      	b.n	8002164 <HAL_RCC_ClockConfig+0x1c8>
 800215a:	f7fe f88b 	bl	8000274 <HAL_GetTick>
 800215e:	1bc0      	subs	r0, r0, r7
 8002160:	4548      	cmp	r0, r9
 8002162:	d8ce      	bhi.n	8002102 <HAL_RCC_ClockConfig+0x166>
 8002164:	4642      	mov	r2, r8
 8002166:	6873      	ldr	r3, [r6, #4]
 8002168:	4013      	ands	r3, r2
 800216a:	2b0c      	cmp	r3, #12
 800216c:	d1f5      	bne.n	800215a <HAL_RCC_ClockConfig+0x1be>
 800216e:	e768      	b.n	8002042 <HAL_RCC_ClockConfig+0xa6>
 8002170:	480b      	ldr	r0, [pc, #44]	; (80021a0 <HAL_RCC_ClockConfig+0x204>)
 8002172:	f7fd ffc9 	bl	8000108 <__udivsi3>
 8002176:	4360      	muls	r0, r4
 8002178:	e790      	b.n	800209c <HAL_RCC_ClockConfig+0x100>
 800217a:	46c0      	nop			; (mov r8, r8)
 800217c:	40022000 	.word	0x40022000
 8002180:	40021000 	.word	0x40021000
 8002184:	00001388 	.word	0x00001388
 8002188:	08003314 	.word	0x08003314
 800218c:	02625a00 	.word	0x02625a00
 8002190:	007a1200 	.word	0x007a1200
 8002194:	08003394 	.word	0x08003394
 8002198:	200000c0 	.word	0x200000c0
 800219c:	fffff8ff 	.word	0xfffff8ff
 80021a0:	02dc6c00 	.word	0x02dc6c00

080021a4 <HAL_RCC_GetHCLKFreq>:
 80021a4:	4b01      	ldr	r3, [pc, #4]	; (80021ac <HAL_RCC_GetHCLKFreq+0x8>)
 80021a6:	6818      	ldr	r0, [r3, #0]
 80021a8:	4770      	bx	lr
 80021aa:	46c0      	nop			; (mov r8, r8)
 80021ac:	200000c0 	.word	0x200000c0

080021b0 <HAL_RCCEx_PeriphCLKConfig>:
 80021b0:	b5f0      	push	{r4, r5, r6, r7, lr}
 80021b2:	46ce      	mov	lr, r9
 80021b4:	4647      	mov	r7, r8
 80021b6:	b580      	push	{r7, lr}
 80021b8:	6803      	ldr	r3, [r0, #0]
 80021ba:	b083      	sub	sp, #12
 80021bc:	0004      	movs	r4, r0
 80021be:	03da      	lsls	r2, r3, #15
 80021c0:	d536      	bpl.n	8002230 <HAL_RCCEx_PeriphCLKConfig+0x80>
 80021c2:	2280      	movs	r2, #128	; 0x80
 80021c4:	4b49      	ldr	r3, [pc, #292]	; (80022ec <HAL_RCCEx_PeriphCLKConfig+0x13c>)
 80021c6:	0552      	lsls	r2, r2, #21
 80021c8:	69d9      	ldr	r1, [r3, #28]
 80021ca:	2700      	movs	r7, #0
 80021cc:	4211      	tst	r1, r2
 80021ce:	d107      	bne.n	80021e0 <HAL_RCCEx_PeriphCLKConfig+0x30>
 80021d0:	69d9      	ldr	r1, [r3, #28]
 80021d2:	3701      	adds	r7, #1
 80021d4:	4311      	orrs	r1, r2
 80021d6:	61d9      	str	r1, [r3, #28]
 80021d8:	69db      	ldr	r3, [r3, #28]
 80021da:	401a      	ands	r2, r3
 80021dc:	9201      	str	r2, [sp, #4]
 80021de:	9b01      	ldr	r3, [sp, #4]
 80021e0:	2680      	movs	r6, #128	; 0x80
 80021e2:	4d43      	ldr	r5, [pc, #268]	; (80022f0 <HAL_RCCEx_PeriphCLKConfig+0x140>)
 80021e4:	0076      	lsls	r6, r6, #1
 80021e6:	682b      	ldr	r3, [r5, #0]
 80021e8:	4233      	tst	r3, r6
 80021ea:	d054      	beq.n	8002296 <HAL_RCCEx_PeriphCLKConfig+0xe6>
 80021ec:	21c0      	movs	r1, #192	; 0xc0
 80021ee:	4d3f      	ldr	r5, [pc, #252]	; (80022ec <HAL_RCCEx_PeriphCLKConfig+0x13c>)
 80021f0:	0089      	lsls	r1, r1, #2
 80021f2:	6a2a      	ldr	r2, [r5, #32]
 80021f4:	6860      	ldr	r0, [r4, #4]
 80021f6:	400a      	ands	r2, r1
 80021f8:	d011      	beq.n	800221e <HAL_RCCEx_PeriphCLKConfig+0x6e>
 80021fa:	4001      	ands	r1, r0
 80021fc:	4291      	cmp	r1, r2
 80021fe:	d00e      	beq.n	800221e <HAL_RCCEx_PeriphCLKConfig+0x6e>
 8002200:	2280      	movs	r2, #128	; 0x80
 8002202:	6a29      	ldr	r1, [r5, #32]
 8002204:	6a2e      	ldr	r6, [r5, #32]
 8002206:	0252      	lsls	r2, r2, #9
 8002208:	4332      	orrs	r2, r6
 800220a:	622a      	str	r2, [r5, #32]
 800220c:	6a2a      	ldr	r2, [r5, #32]
 800220e:	4b39      	ldr	r3, [pc, #228]	; (80022f4 <HAL_RCCEx_PeriphCLKConfig+0x144>)
 8002210:	4e39      	ldr	r6, [pc, #228]	; (80022f8 <HAL_RCCEx_PeriphCLKConfig+0x148>)
 8002212:	400b      	ands	r3, r1
 8002214:	4032      	ands	r2, r6
 8002216:	622a      	str	r2, [r5, #32]
 8002218:	622b      	str	r3, [r5, #32]
 800221a:	07cb      	lsls	r3, r1, #31
 800221c:	d454      	bmi.n	80022c8 <HAL_RCCEx_PeriphCLKConfig+0x118>
 800221e:	4a33      	ldr	r2, [pc, #204]	; (80022ec <HAL_RCCEx_PeriphCLKConfig+0x13c>)
 8002220:	4934      	ldr	r1, [pc, #208]	; (80022f4 <HAL_RCCEx_PeriphCLKConfig+0x144>)
 8002222:	6a13      	ldr	r3, [r2, #32]
 8002224:	400b      	ands	r3, r1
 8002226:	4303      	orrs	r3, r0
 8002228:	6213      	str	r3, [r2, #32]
 800222a:	2f01      	cmp	r7, #1
 800222c:	d044      	beq.n	80022b8 <HAL_RCCEx_PeriphCLKConfig+0x108>
 800222e:	6823      	ldr	r3, [r4, #0]
 8002230:	07da      	lsls	r2, r3, #31
 8002232:	d506      	bpl.n	8002242 <HAL_RCCEx_PeriphCLKConfig+0x92>
 8002234:	2003      	movs	r0, #3
 8002236:	492d      	ldr	r1, [pc, #180]	; (80022ec <HAL_RCCEx_PeriphCLKConfig+0x13c>)
 8002238:	6b0a      	ldr	r2, [r1, #48]	; 0x30
 800223a:	4382      	bics	r2, r0
 800223c:	68a0      	ldr	r0, [r4, #8]
 800223e:	4302      	orrs	r2, r0
 8002240:	630a      	str	r2, [r1, #48]	; 0x30
 8002242:	079a      	lsls	r2, r3, #30
 8002244:	d506      	bpl.n	8002254 <HAL_RCCEx_PeriphCLKConfig+0xa4>
 8002246:	4929      	ldr	r1, [pc, #164]	; (80022ec <HAL_RCCEx_PeriphCLKConfig+0x13c>)
 8002248:	482c      	ldr	r0, [pc, #176]	; (80022fc <HAL_RCCEx_PeriphCLKConfig+0x14c>)
 800224a:	6b0a      	ldr	r2, [r1, #48]	; 0x30
 800224c:	4002      	ands	r2, r0
 800224e:	68e0      	ldr	r0, [r4, #12]
 8002250:	4302      	orrs	r2, r0
 8002252:	630a      	str	r2, [r1, #48]	; 0x30
 8002254:	069a      	lsls	r2, r3, #26
 8002256:	d506      	bpl.n	8002266 <HAL_RCCEx_PeriphCLKConfig+0xb6>
 8002258:	2010      	movs	r0, #16
 800225a:	4924      	ldr	r1, [pc, #144]	; (80022ec <HAL_RCCEx_PeriphCLKConfig+0x13c>)
 800225c:	6b0a      	ldr	r2, [r1, #48]	; 0x30
 800225e:	4382      	bics	r2, r0
 8002260:	6920      	ldr	r0, [r4, #16]
 8002262:	4302      	orrs	r2, r0
 8002264:	630a      	str	r2, [r1, #48]	; 0x30
 8002266:	039a      	lsls	r2, r3, #14
 8002268:	d506      	bpl.n	8002278 <HAL_RCCEx_PeriphCLKConfig+0xc8>
 800226a:	2080      	movs	r0, #128	; 0x80
 800226c:	491f      	ldr	r1, [pc, #124]	; (80022ec <HAL_RCCEx_PeriphCLKConfig+0x13c>)
 800226e:	6b0a      	ldr	r2, [r1, #48]	; 0x30
 8002270:	4382      	bics	r2, r0
 8002272:	69a0      	ldr	r0, [r4, #24]
 8002274:	4302      	orrs	r2, r0
 8002276:	630a      	str	r2, [r1, #48]	; 0x30
 8002278:	2000      	movs	r0, #0
 800227a:	055b      	lsls	r3, r3, #21
 800227c:	d506      	bpl.n	800228c <HAL_RCCEx_PeriphCLKConfig+0xdc>
 800227e:	2140      	movs	r1, #64	; 0x40
 8002280:	4a1a      	ldr	r2, [pc, #104]	; (80022ec <HAL_RCCEx_PeriphCLKConfig+0x13c>)
 8002282:	6b13      	ldr	r3, [r2, #48]	; 0x30
 8002284:	438b      	bics	r3, r1
 8002286:	6961      	ldr	r1, [r4, #20]
 8002288:	430b      	orrs	r3, r1
 800228a:	6313      	str	r3, [r2, #48]	; 0x30
 800228c:	b003      	add	sp, #12
 800228e:	bc0c      	pop	{r2, r3}
 8002290:	4690      	mov	r8, r2
 8002292:	4699      	mov	r9, r3
 8002294:	bdf0      	pop	{r4, r5, r6, r7, pc}
 8002296:	682b      	ldr	r3, [r5, #0]
 8002298:	4333      	orrs	r3, r6
 800229a:	602b      	str	r3, [r5, #0]
 800229c:	f7fd ffea 	bl	8000274 <HAL_GetTick>
 80022a0:	4680      	mov	r8, r0
 80022a2:	e005      	b.n	80022b0 <HAL_RCCEx_PeriphCLKConfig+0x100>
 80022a4:	f7fd ffe6 	bl	8000274 <HAL_GetTick>
 80022a8:	4643      	mov	r3, r8
 80022aa:	1ac0      	subs	r0, r0, r3
 80022ac:	2864      	cmp	r0, #100	; 0x64
 80022ae:	d809      	bhi.n	80022c4 <HAL_RCCEx_PeriphCLKConfig+0x114>
 80022b0:	682b      	ldr	r3, [r5, #0]
 80022b2:	4233      	tst	r3, r6
 80022b4:	d0f6      	beq.n	80022a4 <HAL_RCCEx_PeriphCLKConfig+0xf4>
 80022b6:	e799      	b.n	80021ec <HAL_RCCEx_PeriphCLKConfig+0x3c>
 80022b8:	69d3      	ldr	r3, [r2, #28]
 80022ba:	4911      	ldr	r1, [pc, #68]	; (8002300 <HAL_RCCEx_PeriphCLKConfig+0x150>)
 80022bc:	400b      	ands	r3, r1
 80022be:	61d3      	str	r3, [r2, #28]
 80022c0:	6823      	ldr	r3, [r4, #0]
 80022c2:	e7b5      	b.n	8002230 <HAL_RCCEx_PeriphCLKConfig+0x80>
 80022c4:	2003      	movs	r0, #3
 80022c6:	e7e1      	b.n	800228c <HAL_RCCEx_PeriphCLKConfig+0xdc>
 80022c8:	f7fd ffd4 	bl	8000274 <HAL_GetTick>
 80022cc:	4b0d      	ldr	r3, [pc, #52]	; (8002304 <HAL_RCCEx_PeriphCLKConfig+0x154>)
 80022ce:	4680      	mov	r8, r0
 80022d0:	2602      	movs	r6, #2
 80022d2:	4699      	mov	r9, r3
 80022d4:	e005      	b.n	80022e2 <HAL_RCCEx_PeriphCLKConfig+0x132>
 80022d6:	f7fd ffcd 	bl	8000274 <HAL_GetTick>
 80022da:	4643      	mov	r3, r8
 80022dc:	1ac0      	subs	r0, r0, r3
 80022de:	4548      	cmp	r0, r9
 80022e0:	d8f0      	bhi.n	80022c4 <HAL_RCCEx_PeriphCLKConfig+0x114>
 80022e2:	6a2b      	ldr	r3, [r5, #32]
 80022e4:	421e      	tst	r6, r3
 80022e6:	d0f6      	beq.n	80022d6 <HAL_RCCEx_PeriphCLKConfig+0x126>
 80022e8:	6860      	ldr	r0, [r4, #4]
 80022ea:	e798      	b.n	800221e <HAL_RCCEx_PeriphCLKConfig+0x6e>
 80022ec:	40021000 	.word	0x40021000
 80022f0:	40007000 	.word	0x40007000
 80022f4:	fffffcff 	.word	0xfffffcff
 80022f8:	fffeffff 	.word	0xfffeffff
 80022fc:	fffcffff 	.word	0xfffcffff
 8002300:	efffffff 	.word	0xefffffff
 8002304:	00001388 	.word	0x00001388

08002308 <USBD_HID_GetCfgDesc>:
 8002308:	2322      	movs	r3, #34	; 0x22
 800230a:	8003      	strh	r3, [r0, #0]
 800230c:	4800      	ldr	r0, [pc, #0]	; (8002310 <USBD_HID_GetCfgDesc+0x8>)
 800230e:	4770      	bx	lr
 8002310:	20000084 	.word	0x20000084

08002314 <USBD_HID_DataIn>:
 8002314:	2386      	movs	r3, #134	; 0x86
 8002316:	2200      	movs	r2, #0
 8002318:	009b      	lsls	r3, r3, #2
 800231a:	58c3      	ldr	r3, [r0, r3]
 800231c:	2000      	movs	r0, #0
 800231e:	731a      	strb	r2, [r3, #12]
 8002320:	4770      	bx	lr
 8002322:	46c0      	nop			; (mov r8, r8)

08002324 <USBD_HID_GetDeviceQualifierDesc>:
 8002324:	230a      	movs	r3, #10
 8002326:	8003      	strh	r3, [r0, #0]
 8002328:	4800      	ldr	r0, [pc, #0]	; (800232c <USBD_HID_GetDeviceQualifierDesc+0x8>)
 800232a:	4770      	bx	lr
 800232c:	200000b4 	.word	0x200000b4

08002330 <USBD_HID_Setup>:
 8002330:	2386      	movs	r3, #134	; 0x86
 8002332:	009b      	lsls	r3, r3, #2
 8002334:	b510      	push	{r4, lr}
 8002336:	780a      	ldrb	r2, [r1, #0]
 8002338:	58c4      	ldr	r4, [r0, r3]
 800233a:	3bb9      	subs	r3, #185	; 0xb9
 800233c:	3bff      	subs	r3, #255	; 0xff
 800233e:	4013      	ands	r3, r2
 8002340:	d00f      	beq.n	8002362 <USBD_HID_Setup+0x32>
 8002342:	2b20      	cmp	r3, #32
 8002344:	d10b      	bne.n	800235e <USBD_HID_Setup+0x2e>
 8002346:	784b      	ldrb	r3, [r1, #1]
 8002348:	2b03      	cmp	r3, #3
 800234a:	d02d      	beq.n	80023a8 <USBD_HID_Setup+0x78>
 800234c:	d919      	bls.n	8002382 <USBD_HID_Setup+0x52>
 800234e:	2b0a      	cmp	r3, #10
 8002350:	d034      	beq.n	80023bc <USBD_HID_Setup+0x8c>
 8002352:	2b0b      	cmp	r3, #11
 8002354:	d12e      	bne.n	80023b4 <USBD_HID_Setup+0x84>
 8002356:	788b      	ldrb	r3, [r1, #2]
 8002358:	2000      	movs	r0, #0
 800235a:	6023      	str	r3, [r4, #0]
 800235c:	e000      	b.n	8002360 <USBD_HID_Setup+0x30>
 800235e:	2000      	movs	r0, #0
 8002360:	bd10      	pop	{r4, pc}
 8002362:	784b      	ldrb	r3, [r1, #1]
 8002364:	2b0a      	cmp	r3, #10
 8002366:	d018      	beq.n	800239a <USBD_HID_Setup+0x6a>
 8002368:	2b0b      	cmp	r3, #11
 800236a:	d012      	beq.n	8002392 <USBD_HID_Setup+0x62>
 800236c:	2b06      	cmp	r3, #6
 800236e:	d1f6      	bne.n	800235e <USBD_HID_Setup+0x2e>
 8002370:	884b      	ldrh	r3, [r1, #2]
 8002372:	0a1b      	lsrs	r3, r3, #8
 8002374:	2b22      	cmp	r3, #34	; 0x22
 8002376:	d02e      	beq.n	80023d6 <USBD_HID_Setup+0xa6>
 8002378:	2b21      	cmp	r3, #33	; 0x21
 800237a:	d024      	beq.n	80023c6 <USBD_HID_Setup+0x96>
 800237c:	2100      	movs	r1, #0
 800237e:	2200      	movs	r2, #0
 8002380:	e00e      	b.n	80023a0 <USBD_HID_Setup+0x70>
 8002382:	2b02      	cmp	r3, #2
 8002384:	d116      	bne.n	80023b4 <USBD_HID_Setup+0x84>
 8002386:	1d21      	adds	r1, r4, #4
 8002388:	2201      	movs	r2, #1
 800238a:	f000 fbe3 	bl	8002b54 <USBD_CtlSendData>
 800238e:	2000      	movs	r0, #0
 8002390:	e7e6      	b.n	8002360 <USBD_HID_Setup+0x30>
 8002392:	788b      	ldrb	r3, [r1, #2]
 8002394:	2000      	movs	r0, #0
 8002396:	60a3      	str	r3, [r4, #8]
 8002398:	e7e2      	b.n	8002360 <USBD_HID_Setup+0x30>
 800239a:	0021      	movs	r1, r4
 800239c:	2201      	movs	r2, #1
 800239e:	3108      	adds	r1, #8
 80023a0:	f000 fbd8 	bl	8002b54 <USBD_CtlSendData>
 80023a4:	2000      	movs	r0, #0
 80023a6:	e7db      	b.n	8002360 <USBD_HID_Setup+0x30>
 80023a8:	2201      	movs	r2, #1
 80023aa:	0021      	movs	r1, r4
 80023ac:	f000 fbd2 	bl	8002b54 <USBD_CtlSendData>
 80023b0:	2000      	movs	r0, #0
 80023b2:	e7d5      	b.n	8002360 <USBD_HID_Setup+0x30>
 80023b4:	f000 fb9c 	bl	8002af0 <USBD_CtlError>
 80023b8:	2002      	movs	r0, #2
 80023ba:	e7d1      	b.n	8002360 <USBD_HID_Setup+0x30>
 80023bc:	884b      	ldrh	r3, [r1, #2]
 80023be:	2000      	movs	r0, #0
 80023c0:	0a1b      	lsrs	r3, r3, #8
 80023c2:	6063      	str	r3, [r4, #4]
 80023c4:	e7cc      	b.n	8002360 <USBD_HID_Setup+0x30>
 80023c6:	88cb      	ldrh	r3, [r1, #6]
 80023c8:	1c1a      	adds	r2, r3, #0
 80023ca:	2b09      	cmp	r3, #9
 80023cc:	d900      	bls.n	80023d0 <USBD_HID_Setup+0xa0>
 80023ce:	2209      	movs	r2, #9
 80023d0:	b292      	uxth	r2, r2
 80023d2:	4905      	ldr	r1, [pc, #20]	; (80023e8 <USBD_HID_Setup+0xb8>)
 80023d4:	e7e4      	b.n	80023a0 <USBD_HID_Setup+0x70>
 80023d6:	88cb      	ldrh	r3, [r1, #6]
 80023d8:	1c1a      	adds	r2, r3, #0
 80023da:	2b4a      	cmp	r3, #74	; 0x4a
 80023dc:	d900      	bls.n	80023e0 <USBD_HID_Setup+0xb0>
 80023de:	224a      	movs	r2, #74	; 0x4a
 80023e0:	b292      	uxth	r2, r2
 80023e2:	4902      	ldr	r1, [pc, #8]	; (80023ec <USBD_HID_Setup+0xbc>)
 80023e4:	e7dc      	b.n	80023a0 <USBD_HID_Setup+0x70>
 80023e6:	46c0      	nop			; (mov r8, r8)
 80023e8:	200000a8 	.word	0x200000a8
 80023ec:	20000000 	.word	0x20000000

080023f0 <USBD_HID_DeInit>:
 80023f0:	b570      	push	{r4, r5, r6, lr}
 80023f2:	2586      	movs	r5, #134	; 0x86
 80023f4:	0004      	movs	r4, r0
 80023f6:	2181      	movs	r1, #129	; 0x81
 80023f8:	00ad      	lsls	r5, r5, #2
 80023fa:	f000 fd7f 	bl	8002efc <USBD_LL_CloseEP>
 80023fe:	5960      	ldr	r0, [r4, r5]
 8002400:	2800      	cmp	r0, #0
 8002402:	d003      	beq.n	800240c <USBD_HID_DeInit+0x1c>
 8002404:	f000 fdf6 	bl	8002ff4 <USBD_static_free>
 8002408:	2300      	movs	r3, #0
 800240a:	5163      	str	r3, [r4, r5]
 800240c:	2000      	movs	r0, #0
 800240e:	bd70      	pop	{r4, r5, r6, pc}

08002410 <USBD_HID_Init>:
 8002410:	b510      	push	{r4, lr}
 8002412:	2304      	movs	r3, #4
 8002414:	2203      	movs	r2, #3
 8002416:	2181      	movs	r1, #129	; 0x81
 8002418:	0004      	movs	r4, r0
 800241a:	f000 fd5d 	bl	8002ed8 <USBD_LL_OpenEP>
 800241e:	2010      	movs	r0, #16
 8002420:	f000 fde4 	bl	8002fec <USBD_static_malloc>
 8002424:	2386      	movs	r3, #134	; 0x86
 8002426:	009b      	lsls	r3, r3, #2
 8002428:	50e0      	str	r0, [r4, r3]
 800242a:	2800      	cmp	r0, #0
 800242c:	d003      	beq.n	8002436 <USBD_HID_Init+0x26>
 800242e:	2300      	movs	r3, #0
 8002430:	7303      	strb	r3, [r0, #12]
 8002432:	2000      	movs	r0, #0
 8002434:	bd10      	pop	{r4, pc}
 8002436:	2001      	movs	r0, #1
 8002438:	e7fc      	b.n	8002434 <USBD_HID_Init+0x24>
 800243a:	46c0      	nop			; (mov r8, r8)

0800243c <USBD_Init>:
 800243c:	b510      	push	{r4, lr}
 800243e:	2800      	cmp	r0, #0
 8002440:	d014      	beq.n	800246c <USBD_Init+0x30>
 8002442:	2385      	movs	r3, #133	; 0x85
 8002444:	009b      	lsls	r3, r3, #2
 8002446:	58c4      	ldr	r4, [r0, r3]
 8002448:	2c00      	cmp	r4, #0
 800244a:	d001      	beq.n	8002450 <USBD_Init+0x14>
 800244c:	2400      	movs	r4, #0
 800244e:	50c4      	str	r4, [r0, r3]
 8002450:	2900      	cmp	r1, #0
 8002452:	d002      	beq.n	800245a <USBD_Init+0x1e>
 8002454:	2384      	movs	r3, #132	; 0x84
 8002456:	009b      	lsls	r3, r3, #2
 8002458:	50c1      	str	r1, [r0, r3]
 800245a:	23fe      	movs	r3, #254	; 0xfe
 800245c:	2101      	movs	r1, #1
 800245e:	005b      	lsls	r3, r3, #1
 8002460:	54c1      	strb	r1, [r0, r3]
 8002462:	7002      	strb	r2, [r0, #0]
 8002464:	f000 fcf4 	bl	8002e50 <USBD_LL_Init>
 8002468:	2000      	movs	r0, #0
 800246a:	bd10      	pop	{r4, pc}
 800246c:	2002      	movs	r0, #2
 800246e:	e7fc      	b.n	800246a <USBD_Init+0x2e>

08002470 <USBD_RegisterClass>:
 8002470:	2900      	cmp	r1, #0
 8002472:	d004      	beq.n	800247e <USBD_RegisterClass+0xe>
 8002474:	2385      	movs	r3, #133	; 0x85
 8002476:	009b      	lsls	r3, r3, #2
 8002478:	50c1      	str	r1, [r0, r3]
 800247a:	2000      	movs	r0, #0
 800247c:	4770      	bx	lr
 800247e:	2002      	movs	r0, #2
 8002480:	e7fc      	b.n	800247c <USBD_RegisterClass+0xc>
 8002482:	46c0      	nop			; (mov r8, r8)

08002484 <USBD_Start>:
 8002484:	b510      	push	{r4, lr}
 8002486:	f000 fd17 	bl	8002eb8 <USBD_LL_Start>
 800248a:	2000      	movs	r0, #0
 800248c:	bd10      	pop	{r4, pc}
 800248e:	46c0      	nop			; (mov r8, r8)

08002490 <USBD_SetClassConfig>:
 8002490:	2385      	movs	r3, #133	; 0x85
 8002492:	009b      	lsls	r3, r3, #2
 8002494:	58c3      	ldr	r3, [r0, r3]
 8002496:	b510      	push	{r4, lr}
 8002498:	2b00      	cmp	r3, #0
 800249a:	d004      	beq.n	80024a6 <USBD_SetClassConfig+0x16>
 800249c:	681b      	ldr	r3, [r3, #0]
 800249e:	4798      	blx	r3
 80024a0:	2800      	cmp	r0, #0
 80024a2:	d100      	bne.n	80024a6 <USBD_SetClassConfig+0x16>
 80024a4:	bd10      	pop	{r4, pc}
 80024a6:	2002      	movs	r0, #2
 80024a8:	e7fc      	b.n	80024a4 <USBD_SetClassConfig+0x14>
 80024aa:	46c0      	nop			; (mov r8, r8)

080024ac <USBD_ClrClassConfig>:
 80024ac:	2385      	movs	r3, #133	; 0x85
 80024ae:	b510      	push	{r4, lr}
 80024b0:	009b      	lsls	r3, r3, #2
 80024b2:	58c3      	ldr	r3, [r0, r3]
 80024b4:	685b      	ldr	r3, [r3, #4]
 80024b6:	4798      	blx	r3
 80024b8:	2000      	movs	r0, #0
 80024ba:	bd10      	pop	{r4, pc}

080024bc <USBD_LL_SetupStage>:
 80024bc:	2382      	movs	r3, #130	; 0x82
 80024be:	009b      	lsls	r3, r3, #2
 80024c0:	b570      	push	{r4, r5, r6, lr}
 80024c2:	18c5      	adds	r5, r0, r3
 80024c4:	0004      	movs	r4, r0
 80024c6:	0028      	movs	r0, r5
 80024c8:	f000 fafe 	bl	8002ac8 <USBD_ParseSetupRequest>
 80024cc:	23fa      	movs	r3, #250	; 0xfa
 80024ce:	2201      	movs	r2, #1
 80024d0:	005b      	lsls	r3, r3, #1
 80024d2:	50e2      	str	r2, [r4, r3]
 80024d4:	4b12      	ldr	r3, [pc, #72]	; (8002520 <USBD_LL_SetupStage+0x64>)
 80024d6:	5ae2      	ldrh	r2, [r4, r3]
 80024d8:	3b16      	subs	r3, #22
 80024da:	50e2      	str	r2, [r4, r3]
 80024dc:	3310      	adds	r3, #16
 80024de:	5ce1      	ldrb	r1, [r4, r3]
 80024e0:	3bea      	subs	r3, #234	; 0xea
 80024e2:	3bff      	subs	r3, #255	; 0xff
 80024e4:	400b      	ands	r3, r1
 80024e6:	2b01      	cmp	r3, #1
 80024e8:	d014      	beq.n	8002514 <USBD_LL_SetupStage+0x58>
 80024ea:	2b00      	cmp	r3, #0
 80024ec:	d00d      	beq.n	800250a <USBD_LL_SetupStage+0x4e>
 80024ee:	2b02      	cmp	r3, #2
 80024f0:	d006      	beq.n	8002500 <USBD_LL_SetupStage+0x44>
 80024f2:	237f      	movs	r3, #127	; 0x7f
 80024f4:	0020      	movs	r0, r4
 80024f6:	4399      	bics	r1, r3
 80024f8:	f000 fd10 	bl	8002f1c <USBD_LL_StallEP>
 80024fc:	2000      	movs	r0, #0
 80024fe:	bd70      	pop	{r4, r5, r6, pc}
 8002500:	0029      	movs	r1, r5
 8002502:	0020      	movs	r0, r4
 8002504:	f000 fa72 	bl	80029ec <USBD_StdEPReq>
 8002508:	e7f8      	b.n	80024fc <USBD_LL_SetupStage+0x40>
 800250a:	0029      	movs	r1, r5
 800250c:	0020      	movs	r0, r4
 800250e:	f000 f8ef 	bl	80026f0 <USBD_StdDevReq>
 8002512:	e7f3      	b.n	80024fc <USBD_LL_SetupStage+0x40>
 8002514:	0029      	movs	r1, r5
 8002516:	0020      	movs	r0, r4
 8002518:	f000 fa46 	bl	80029a8 <USBD_StdItfReq>
 800251c:	e7ee      	b.n	80024fc <USBD_LL_SetupStage+0x40>
 800251e:	46c0      	nop			; (mov r8, r8)
 8002520:	0000020e 	.word	0x0000020e

08002524 <USBD_LL_DataOutStage>:
 8002524:	b510      	push	{r4, lr}
 8002526:	0013      	movs	r3, r2
 8002528:	0004      	movs	r4, r0
 800252a:	2900      	cmp	r1, #0
 800252c:	d106      	bne.n	800253c <USBD_LL_DataOutStage+0x18>
 800252e:	22fa      	movs	r2, #250	; 0xfa
 8002530:	0052      	lsls	r2, r2, #1
 8002532:	5882      	ldr	r2, [r0, r2]
 8002534:	2a03      	cmp	r2, #3
 8002536:	d00e      	beq.n	8002556 <USBD_LL_DataOutStage+0x32>
 8002538:	2000      	movs	r0, #0
 800253a:	bd10      	pop	{r4, pc}
 800253c:	2385      	movs	r3, #133	; 0x85
 800253e:	009b      	lsls	r3, r3, #2
 8002540:	58c3      	ldr	r3, [r0, r3]
 8002542:	699b      	ldr	r3, [r3, #24]
 8002544:	2b00      	cmp	r3, #0
 8002546:	d0f7      	beq.n	8002538 <USBD_LL_DataOutStage+0x14>
 8002548:	22fe      	movs	r2, #254	; 0xfe
 800254a:	0052      	lsls	r2, r2, #1
 800254c:	5c82      	ldrb	r2, [r0, r2]
 800254e:	2a03      	cmp	r2, #3
 8002550:	d1f2      	bne.n	8002538 <USBD_LL_DataOutStage+0x14>
 8002552:	4798      	blx	r3
 8002554:	e7f0      	b.n	8002538 <USBD_LL_DataOutStage+0x14>
 8002556:	3005      	adds	r0, #5
 8002558:	30ff      	adds	r0, #255	; 0xff
 800255a:	6881      	ldr	r1, [r0, #8]
 800255c:	68c2      	ldr	r2, [r0, #12]
 800255e:	4291      	cmp	r1, r2
 8002560:	d810      	bhi.n	8002584 <USBD_LL_DataOutStage+0x60>
 8002562:	2385      	movs	r3, #133	; 0x85
 8002564:	009b      	lsls	r3, r3, #2
 8002566:	58e3      	ldr	r3, [r4, r3]
 8002568:	691b      	ldr	r3, [r3, #16]
 800256a:	2b00      	cmp	r3, #0
 800256c:	d006      	beq.n	800257c <USBD_LL_DataOutStage+0x58>
 800256e:	22fe      	movs	r2, #254	; 0xfe
 8002570:	0052      	lsls	r2, r2, #1
 8002572:	5ca2      	ldrb	r2, [r4, r2]
 8002574:	2a03      	cmp	r2, #3
 8002576:	d101      	bne.n	800257c <USBD_LL_DataOutStage+0x58>
 8002578:	0020      	movs	r0, r4
 800257a:	4798      	blx	r3
 800257c:	0020      	movs	r0, r4
 800257e:	f000 fb07 	bl	8002b90 <USBD_CtlSendStatus>
 8002582:	e7d9      	b.n	8002538 <USBD_LL_DataOutStage+0x14>
 8002584:	1a89      	subs	r1, r1, r2
 8002586:	6081      	str	r1, [r0, #8]
 8002588:	428a      	cmp	r2, r1
 800258a:	d805      	bhi.n	8002598 <USBD_LL_DataOutStage+0x74>
 800258c:	b292      	uxth	r2, r2
 800258e:	0019      	movs	r1, r3
 8002590:	0020      	movs	r0, r4
 8002592:	f000 faf5 	bl	8002b80 <USBD_CtlContinueRx>
 8002596:	e7cf      	b.n	8002538 <USBD_LL_DataOutStage+0x14>
 8002598:	000a      	movs	r2, r1
 800259a:	e7f7      	b.n	800258c <USBD_LL_DataOutStage+0x68>

0800259c <USBD_LL_DataInStage>:
 800259c:	b5f8      	push	{r3, r4, r5, r6, r7, lr}
 800259e:	0004      	movs	r4, r0
 80025a0:	0013      	movs	r3, r2
 80025a2:	2900      	cmp	r1, #0
 80025a4:	d10b      	bne.n	80025be <USBD_LL_DataInStage+0x22>
 80025a6:	22fa      	movs	r2, #250	; 0xfa
 80025a8:	0052      	lsls	r2, r2, #1
 80025aa:	5882      	ldr	r2, [r0, r2]
 80025ac:	2a02      	cmp	r2, #2
 80025ae:	d016      	beq.n	80025de <USBD_LL_DataInStage+0x42>
 80025b0:	2380      	movs	r3, #128	; 0x80
 80025b2:	009b      	lsls	r3, r3, #2
 80025b4:	5ce2      	ldrb	r2, [r4, r3]
 80025b6:	2a01      	cmp	r2, #1
 80025b8:	d00e      	beq.n	80025d8 <USBD_LL_DataInStage+0x3c>
 80025ba:	2000      	movs	r0, #0
 80025bc:	bdf8      	pop	{r3, r4, r5, r6, r7, pc}
 80025be:	2385      	movs	r3, #133	; 0x85
 80025c0:	009b      	lsls	r3, r3, #2
 80025c2:	58c3      	ldr	r3, [r0, r3]
 80025c4:	695b      	ldr	r3, [r3, #20]
 80025c6:	2b00      	cmp	r3, #0
 80025c8:	d0f7      	beq.n	80025ba <USBD_LL_DataInStage+0x1e>
 80025ca:	22fe      	movs	r2, #254	; 0xfe
 80025cc:	0052      	lsls	r2, r2, #1
 80025ce:	5c82      	ldrb	r2, [r0, r2]
 80025d0:	2a03      	cmp	r2, #3
 80025d2:	d1f2      	bne.n	80025ba <USBD_LL_DataInStage+0x1e>
 80025d4:	4798      	blx	r3
 80025d6:	e7f0      	b.n	80025ba <USBD_LL_DataInStage+0x1e>
 80025d8:	2200      	movs	r2, #0
 80025da:	54e2      	strb	r2, [r4, r3]
 80025dc:	e7ed      	b.n	80025ba <USBD_LL_DataInStage+0x1e>
 80025de:	69c2      	ldr	r2, [r0, #28]
 80025e0:	6a05      	ldr	r5, [r0, #32]
 80025e2:	42aa      	cmp	r2, r5
 80025e4:	d81e      	bhi.n	8002624 <USBD_LL_DataInStage+0x88>
 80025e6:	6986      	ldr	r6, [r0, #24]
 80025e8:	0029      	movs	r1, r5
 80025ea:	0030      	movs	r0, r6
 80025ec:	f7fd fe12 	bl	8000214 <__aeabi_uidivmod>
 80025f0:	1e0f      	subs	r7, r1, #0
 80025f2:	d101      	bne.n	80025f8 <USBD_LL_DataInStage+0x5c>
 80025f4:	42b5      	cmp	r5, r6
 80025f6:	d922      	bls.n	800263e <USBD_LL_DataInStage+0xa2>
 80025f8:	2385      	movs	r3, #133	; 0x85
 80025fa:	009b      	lsls	r3, r3, #2
 80025fc:	58e3      	ldr	r3, [r4, r3]
 80025fe:	68db      	ldr	r3, [r3, #12]
 8002600:	2b00      	cmp	r3, #0
 8002602:	d006      	beq.n	8002612 <USBD_LL_DataInStage+0x76>
 8002604:	22fe      	movs	r2, #254	; 0xfe
 8002606:	0052      	lsls	r2, r2, #1
 8002608:	5ca2      	ldrb	r2, [r4, r2]
 800260a:	2a03      	cmp	r2, #3
 800260c:	d101      	bne.n	8002612 <USBD_LL_DataInStage+0x76>
 800260e:	0020      	movs	r0, r4
 8002610:	4798      	blx	r3
 8002612:	0020      	movs	r0, r4
 8002614:	f000 fac8 	bl	8002ba8 <USBD_CtlReceiveStatus>
 8002618:	2380      	movs	r3, #128	; 0x80
 800261a:	009b      	lsls	r3, r3, #2
 800261c:	5ce2      	ldrb	r2, [r4, r3]
 800261e:	2a01      	cmp	r2, #1
 8002620:	d1cb      	bne.n	80025ba <USBD_LL_DataInStage+0x1e>
 8002622:	e7d9      	b.n	80025d8 <USBD_LL_DataInStage+0x3c>
 8002624:	1b52      	subs	r2, r2, r5
 8002626:	61c2      	str	r2, [r0, #28]
 8002628:	0019      	movs	r1, r3
 800262a:	b292      	uxth	r2, r2
 800262c:	f000 faa0 	bl	8002b70 <USBD_CtlContinueSendData>
 8002630:	2300      	movs	r3, #0
 8002632:	2200      	movs	r2, #0
 8002634:	2100      	movs	r1, #0
 8002636:	0020      	movs	r0, r4
 8002638:	f000 fcc8 	bl	8002fcc <USBD_LL_PrepareReceive>
 800263c:	e7b8      	b.n	80025b0 <USBD_LL_DataInStage+0x14>
 800263e:	25fc      	movs	r5, #252	; 0xfc
 8002640:	006d      	lsls	r5, r5, #1
 8002642:	5963      	ldr	r3, [r4, r5]
 8002644:	429e      	cmp	r6, r3
 8002646:	d2d7      	bcs.n	80025f8 <USBD_LL_DataInStage+0x5c>
 8002648:	2200      	movs	r2, #0
 800264a:	2100      	movs	r1, #0
 800264c:	0020      	movs	r0, r4
 800264e:	f000 fa8f 	bl	8002b70 <USBD_CtlContinueSendData>
 8002652:	5167      	str	r7, [r4, r5]
 8002654:	e7ec      	b.n	8002630 <USBD_LL_DataInStage+0x94>
 8002656:	46c0      	nop			; (mov r8, r8)

08002658 <USBD_LL_Reset>:
 8002658:	b570      	push	{r4, r5, r6, lr}
 800265a:	2340      	movs	r3, #64	; 0x40
 800265c:	2200      	movs	r2, #0
 800265e:	2100      	movs	r1, #0
 8002660:	0004      	movs	r4, r0
 8002662:	f000 fc39 	bl	8002ed8 <USBD_LL_OpenEP>
 8002666:	2388      	movs	r3, #136	; 0x88
 8002668:	2540      	movs	r5, #64	; 0x40
 800266a:	005b      	lsls	r3, r3, #1
 800266c:	50e5      	str	r5, [r4, r3]
 800266e:	2200      	movs	r2, #0
 8002670:	3bd0      	subs	r3, #208	; 0xd0
 8002672:	2180      	movs	r1, #128	; 0x80
 8002674:	0020      	movs	r0, r4
 8002676:	f000 fc2f 	bl	8002ed8 <USBD_LL_OpenEP>
 800267a:	23fe      	movs	r3, #254	; 0xfe
 800267c:	2201      	movs	r2, #1
 800267e:	005b      	lsls	r3, r3, #1
 8002680:	6225      	str	r5, [r4, #32]
 8002682:	54e2      	strb	r2, [r4, r3]
 8002684:	331c      	adds	r3, #28
 8002686:	58e3      	ldr	r3, [r4, r3]
 8002688:	2b00      	cmp	r3, #0
 800268a:	d006      	beq.n	800269a <USBD_LL_Reset+0x42>
 800268c:	2385      	movs	r3, #133	; 0x85
 800268e:	009b      	lsls	r3, r3, #2
 8002690:	58e3      	ldr	r3, [r4, r3]
 8002692:	7921      	ldrb	r1, [r4, #4]
 8002694:	685b      	ldr	r3, [r3, #4]
 8002696:	0020      	movs	r0, r4
 8002698:	4798      	blx	r3
 800269a:	2000      	movs	r0, #0
 800269c:	bd70      	pop	{r4, r5, r6, pc}
 800269e:	46c0      	nop			; (mov r8, r8)

080026a0 <USBD_LL_SetSpeed>:
 80026a0:	7401      	strb	r1, [r0, #16]
 80026a2:	2000      	movs	r0, #0
 80026a4:	4770      	bx	lr
 80026a6:	46c0      	nop			; (mov r8, r8)

080026a8 <USBD_LL_Suspend>:
 80026a8:	23fe      	movs	r3, #254	; 0xfe
 80026aa:	22fe      	movs	r2, #254	; 0xfe
 80026ac:	005b      	lsls	r3, r3, #1
 80026ae:	5cc1      	ldrb	r1, [r0, r3]
 80026b0:	32ff      	adds	r2, #255	; 0xff
 80026b2:	5481      	strb	r1, [r0, r2]
 80026b4:	3afa      	subs	r2, #250	; 0xfa
 80026b6:	3aff      	subs	r2, #255	; 0xff
 80026b8:	54c2      	strb	r2, [r0, r3]
 80026ba:	2000      	movs	r0, #0
 80026bc:	4770      	bx	lr
 80026be:	46c0      	nop			; (mov r8, r8)

080026c0 <USBD_LL_Resume>:
 80026c0:	23fe      	movs	r3, #254	; 0xfe
 80026c2:	33ff      	adds	r3, #255	; 0xff
 80026c4:	5cc2      	ldrb	r2, [r0, r3]
 80026c6:	3b01      	subs	r3, #1
 80026c8:	54c2      	strb	r2, [r0, r3]
 80026ca:	2000      	movs	r0, #0
 80026cc:	4770      	bx	lr
 80026ce:	46c0      	nop			; (mov r8, r8)

080026d0 <USBD_LL_SOF>:
 80026d0:	23fe      	movs	r3, #254	; 0xfe
 80026d2:	b510      	push	{r4, lr}
 80026d4:	005b      	lsls	r3, r3, #1
 80026d6:	5cc3      	ldrb	r3, [r0, r3]
 80026d8:	2b03      	cmp	r3, #3
 80026da:	d001      	beq.n	80026e0 <USBD_LL_SOF+0x10>
 80026dc:	2000      	movs	r0, #0
 80026de:	bd10      	pop	{r4, pc}
 80026e0:	2385      	movs	r3, #133	; 0x85
 80026e2:	009b      	lsls	r3, r3, #2
 80026e4:	58c3      	ldr	r3, [r0, r3]
 80026e6:	69db      	ldr	r3, [r3, #28]
 80026e8:	2b00      	cmp	r3, #0
 80026ea:	d0f7      	beq.n	80026dc <USBD_LL_SOF+0xc>
 80026ec:	4798      	blx	r3
 80026ee:	e7f5      	b.n	80026dc <USBD_LL_SOF+0xc>

080026f0 <USBD_StdDevReq>:
 80026f0:	b570      	push	{r4, r5, r6, lr}
 80026f2:	784b      	ldrb	r3, [r1, #1]
 80026f4:	b082      	sub	sp, #8
 80026f6:	0004      	movs	r4, r0
 80026f8:	000d      	movs	r5, r1
 80026fa:	2b09      	cmp	r3, #9
 80026fc:	d80a      	bhi.n	8002714 <USBD_StdDevReq+0x24>
 80026fe:	4aa6      	ldr	r2, [pc, #664]	; (8002998 <USBD_StdDevReq+0x2a8>)
 8002700:	009b      	lsls	r3, r3, #2
 8002702:	58d3      	ldr	r3, [r2, r3]
 8002704:	469f      	mov	pc, r3
 8002706:	888b      	ldrh	r3, [r1, #4]
 8002708:	2b00      	cmp	r3, #0
 800270a:	d103      	bne.n	8002714 <USBD_StdDevReq+0x24>
 800270c:	88cb      	ldrh	r3, [r1, #6]
 800270e:	2b00      	cmp	r3, #0
 8002710:	d100      	bne.n	8002714 <USBD_StdDevReq+0x24>
 8002712:	e076      	b.n	8002802 <USBD_StdDevReq+0x112>
 8002714:	2180      	movs	r1, #128	; 0x80
 8002716:	0020      	movs	r0, r4
 8002718:	f000 fc00 	bl	8002f1c <USBD_LL_StallEP>
 800271c:	2100      	movs	r1, #0
 800271e:	0020      	movs	r0, r4
 8002720:	f000 fbfc 	bl	8002f1c <USBD_LL_StallEP>
 8002724:	2000      	movs	r0, #0
 8002726:	b002      	add	sp, #8
 8002728:	bd70      	pop	{r4, r5, r6, pc}
 800272a:	788b      	ldrb	r3, [r1, #2]
 800272c:	4d9b      	ldr	r5, [pc, #620]	; (800299c <USBD_StdDevReq+0x2ac>)
 800272e:	702b      	strb	r3, [r5, #0]
 8002730:	2b01      	cmp	r3, #1
 8002732:	d8ef      	bhi.n	8002714 <USBD_StdDevReq+0x24>
 8002734:	21fe      	movs	r1, #254	; 0xfe
 8002736:	0049      	lsls	r1, r1, #1
 8002738:	5c42      	ldrb	r2, [r0, r1]
 800273a:	2a02      	cmp	r2, #2
 800273c:	d079      	beq.n	8002832 <USBD_StdDevReq+0x142>
 800273e:	2a03      	cmp	r2, #3
 8002740:	d1e8      	bne.n	8002714 <USBD_StdDevReq+0x24>
 8002742:	2b00      	cmp	r3, #0
 8002744:	d100      	bne.n	8002748 <USBD_StdDevReq+0x58>
 8002746:	e11d      	b.n	8002984 <USBD_StdDevReq+0x294>
 8002748:	6841      	ldr	r1, [r0, #4]
 800274a:	2901      	cmp	r1, #1
 800274c:	d033      	beq.n	80027b6 <USBD_StdDevReq+0xc6>
 800274e:	b2c9      	uxtb	r1, r1
 8002750:	f7ff feac 	bl	80024ac <USBD_ClrClassConfig>
 8002754:	7829      	ldrb	r1, [r5, #0]
 8002756:	0020      	movs	r0, r4
 8002758:	6061      	str	r1, [r4, #4]
 800275a:	f7ff fe99 	bl	8002490 <USBD_SetClassConfig>
 800275e:	2802      	cmp	r0, #2
 8002760:	d129      	bne.n	80027b6 <USBD_StdDevReq+0xc6>
 8002762:	e7d7      	b.n	8002714 <USBD_StdDevReq+0x24>
 8002764:	23fe      	movs	r3, #254	; 0xfe
 8002766:	005b      	lsls	r3, r3, #1
 8002768:	5cc3      	ldrb	r3, [r0, r3]
 800276a:	3b02      	subs	r3, #2
 800276c:	2b01      	cmp	r3, #1
 800276e:	d8d1      	bhi.n	8002714 <USBD_StdDevReq+0x24>
 8002770:	2300      	movs	r3, #0
 8002772:	60c3      	str	r3, [r0, #12]
 8002774:	2381      	movs	r3, #129	; 0x81
 8002776:	009b      	lsls	r3, r3, #2
 8002778:	58c3      	ldr	r3, [r0, r3]
 800277a:	2b00      	cmp	r3, #0
 800277c:	d001      	beq.n	8002782 <USBD_StdDevReq+0x92>
 800277e:	2302      	movs	r3, #2
 8002780:	60c3      	str	r3, [r0, #12]
 8002782:	0021      	movs	r1, r4
 8002784:	2202      	movs	r2, #2
 8002786:	310c      	adds	r1, #12
 8002788:	0020      	movs	r0, r4
 800278a:	f000 f9e3 	bl	8002b54 <USBD_CtlSendData>
 800278e:	e7c9      	b.n	8002724 <USBD_StdDevReq+0x34>
 8002790:	23fe      	movs	r3, #254	; 0xfe
 8002792:	005b      	lsls	r3, r3, #1
 8002794:	5cc3      	ldrb	r3, [r0, r3]
 8002796:	3b02      	subs	r3, #2
 8002798:	2b01      	cmp	r3, #1
 800279a:	d8bb      	bhi.n	8002714 <USBD_StdDevReq+0x24>
 800279c:	884b      	ldrh	r3, [r1, #2]
 800279e:	2b01      	cmp	r3, #1
 80027a0:	d1c0      	bne.n	8002724 <USBD_StdDevReq+0x34>
 80027a2:	2381      	movs	r3, #129	; 0x81
 80027a4:	2200      	movs	r2, #0
 80027a6:	009b      	lsls	r3, r3, #2
 80027a8:	50c2      	str	r2, [r0, r3]
 80027aa:	3310      	adds	r3, #16
 80027ac:	58e3      	ldr	r3, [r4, r3]
 80027ae:	0029      	movs	r1, r5
 80027b0:	689b      	ldr	r3, [r3, #8]
 80027b2:	0020      	movs	r0, r4
 80027b4:	4798      	blx	r3
 80027b6:	0020      	movs	r0, r4
 80027b8:	f000 f9ea 	bl	8002b90 <USBD_CtlSendStatus>
 80027bc:	e7b2      	b.n	8002724 <USBD_StdDevReq+0x34>
 80027be:	884b      	ldrh	r3, [r1, #2]
 80027c0:	2b01      	cmp	r3, #1
 80027c2:	d1af      	bne.n	8002724 <USBD_StdDevReq+0x34>
 80027c4:	2281      	movs	r2, #129	; 0x81
 80027c6:	0092      	lsls	r2, r2, #2
 80027c8:	5083      	str	r3, [r0, r2]
 80027ca:	2385      	movs	r3, #133	; 0x85
 80027cc:	009b      	lsls	r3, r3, #2
 80027ce:	e7ed      	b.n	80027ac <USBD_StdDevReq+0xbc>
 80027d0:	884a      	ldrh	r2, [r1, #2]
 80027d2:	0a13      	lsrs	r3, r2, #8
 80027d4:	2b07      	cmp	r3, #7
 80027d6:	d89d      	bhi.n	8002714 <USBD_StdDevReq+0x24>
 80027d8:	4971      	ldr	r1, [pc, #452]	; (80029a0 <USBD_StdDevReq+0x2b0>)
 80027da:	009b      	lsls	r3, r3, #2
 80027dc:	58cb      	ldr	r3, [r1, r3]
 80027de:	469f      	mov	pc, r3
 80027e0:	88cb      	ldrh	r3, [r1, #6]
 80027e2:	2b01      	cmp	r3, #1
 80027e4:	d000      	beq.n	80027e8 <USBD_StdDevReq+0xf8>
 80027e6:	e795      	b.n	8002714 <USBD_StdDevReq+0x24>
 80027e8:	33fc      	adds	r3, #252	; 0xfc
 80027ea:	33ff      	adds	r3, #255	; 0xff
 80027ec:	5cc3      	ldrb	r3, [r0, r3]
 80027ee:	2b02      	cmp	r3, #2
 80027f0:	d02b      	beq.n	800284a <USBD_StdDevReq+0x15a>
 80027f2:	2b03      	cmp	r3, #3
 80027f4:	d000      	beq.n	80027f8 <USBD_StdDevReq+0x108>
 80027f6:	e78d      	b.n	8002714 <USBD_StdDevReq+0x24>
 80027f8:	1d01      	adds	r1, r0, #4
 80027fa:	2201      	movs	r2, #1
 80027fc:	f000 f9aa 	bl	8002b54 <USBD_CtlSendData>
 8002800:	e790      	b.n	8002724 <USBD_StdDevReq+0x34>
 8002802:	26fe      	movs	r6, #254	; 0xfe
 8002804:	0076      	lsls	r6, r6, #1
 8002806:	5d83      	ldrb	r3, [r0, r6]
 8002808:	2b03      	cmp	r3, #3
 800280a:	d100      	bne.n	800280e <USBD_StdDevReq+0x11e>
 800280c:	e782      	b.n	8002714 <USBD_StdDevReq+0x24>
 800280e:	257f      	movs	r5, #127	; 0x7f
 8002810:	884b      	ldrh	r3, [r1, #2]
 8002812:	401d      	ands	r5, r3
 8002814:	23ff      	movs	r3, #255	; 0xff
 8002816:	005b      	lsls	r3, r3, #1
 8002818:	54c5      	strb	r5, [r0, r3]
 800281a:	0029      	movs	r1, r5
 800281c:	f000 fbb6 	bl	8002f8c <USBD_LL_SetUSBAddress>
 8002820:	0020      	movs	r0, r4
 8002822:	f000 f9b5 	bl	8002b90 <USBD_CtlSendStatus>
 8002826:	2d00      	cmp	r5, #0
 8002828:	d100      	bne.n	800282c <USBD_StdDevReq+0x13c>
 800282a:	e0a0      	b.n	800296e <USBD_StdDevReq+0x27e>
 800282c:	2302      	movs	r3, #2
 800282e:	55a3      	strb	r3, [r4, r6]
 8002830:	e778      	b.n	8002724 <USBD_StdDevReq+0x34>
 8002832:	2b00      	cmp	r3, #0
 8002834:	d0bf      	beq.n	80027b6 <USBD_StdDevReq+0xc6>
 8002836:	2301      	movs	r3, #1
 8002838:	6043      	str	r3, [r0, #4]
 800283a:	3302      	adds	r3, #2
 800283c:	5443      	strb	r3, [r0, r1]
 800283e:	2101      	movs	r1, #1
 8002840:	f7ff fe26 	bl	8002490 <USBD_SetClassConfig>
 8002844:	2802      	cmp	r0, #2
 8002846:	d1b6      	bne.n	80027b6 <USBD_StdDevReq+0xc6>
 8002848:	e764      	b.n	8002714 <USBD_StdDevReq+0x24>
 800284a:	2300      	movs	r3, #0
 800284c:	0001      	movs	r1, r0
 800284e:	6083      	str	r3, [r0, #8]
 8002850:	3108      	adds	r1, #8
 8002852:	2201      	movs	r2, #1
 8002854:	f000 f97e 	bl	8002b54 <USBD_CtlSendData>
 8002858:	e764      	b.n	8002724 <USBD_StdDevReq+0x34>
 800285a:	7c03      	ldrb	r3, [r0, #16]
 800285c:	2b00      	cmp	r3, #0
 800285e:	d000      	beq.n	8002862 <USBD_StdDevReq+0x172>
 8002860:	e758      	b.n	8002714 <USBD_StdDevReq+0x24>
 8002862:	466b      	mov	r3, sp
 8002864:	1d9e      	adds	r6, r3, #6
 8002866:	2385      	movs	r3, #133	; 0x85
 8002868:	009b      	lsls	r3, r3, #2
 800286a:	58c3      	ldr	r3, [r0, r3]
 800286c:	0030      	movs	r0, r6
 800286e:	6b1b      	ldr	r3, [r3, #48]	; 0x30
 8002870:	4798      	blx	r3
 8002872:	2307      	movs	r3, #7
 8002874:	7043      	strb	r3, [r0, #1]
 8002876:	8833      	ldrh	r3, [r6, #0]
 8002878:	2b00      	cmp	r3, #0
 800287a:	d100      	bne.n	800287e <USBD_StdDevReq+0x18e>
 800287c:	e752      	b.n	8002724 <USBD_StdDevReq+0x34>
 800287e:	88ea      	ldrh	r2, [r5, #6]
 8002880:	2a00      	cmp	r2, #0
 8002882:	d100      	bne.n	8002886 <USBD_StdDevReq+0x196>
 8002884:	e74e      	b.n	8002724 <USBD_StdDevReq+0x34>
 8002886:	1c19      	adds	r1, r3, #0
 8002888:	4293      	cmp	r3, r2
 800288a:	d900      	bls.n	800288e <USBD_StdDevReq+0x19e>
 800288c:	1c11      	adds	r1, r2, #0
 800288e:	b28a      	uxth	r2, r1
 8002890:	8031      	strh	r1, [r6, #0]
 8002892:	0001      	movs	r1, r0
 8002894:	0020      	movs	r0, r4
 8002896:	f000 f95d 	bl	8002b54 <USBD_CtlSendData>
 800289a:	e743      	b.n	8002724 <USBD_StdDevReq+0x34>
 800289c:	7c03      	ldrb	r3, [r0, #16]
 800289e:	2b00      	cmp	r3, #0
 80028a0:	d000      	beq.n	80028a4 <USBD_StdDevReq+0x1b4>
 80028a2:	e737      	b.n	8002714 <USBD_StdDevReq+0x24>
 80028a4:	466b      	mov	r3, sp
 80028a6:	1d9e      	adds	r6, r3, #6
 80028a8:	2385      	movs	r3, #133	; 0x85
 80028aa:	009b      	lsls	r3, r3, #2
 80028ac:	58c3      	ldr	r3, [r0, r3]
 80028ae:	0030      	movs	r0, r6
 80028b0:	6b5b      	ldr	r3, [r3, #52]	; 0x34
 80028b2:	4798      	blx	r3
 80028b4:	e7df      	b.n	8002876 <USBD_StdDevReq+0x186>
 80028b6:	b2d2      	uxtb	r2, r2
 80028b8:	2a05      	cmp	r2, #5
 80028ba:	d900      	bls.n	80028be <USBD_StdDevReq+0x1ce>
 80028bc:	e72a      	b.n	8002714 <USBD_StdDevReq+0x24>
 80028be:	4b39      	ldr	r3, [pc, #228]	; (80029a4 <USBD_StdDevReq+0x2b4>)
 80028c0:	0092      	lsls	r2, r2, #2
 80028c2:	589b      	ldr	r3, [r3, r2]
 80028c4:	469f      	mov	pc, r3
 80028c6:	2385      	movs	r3, #133	; 0x85
 80028c8:	7c02      	ldrb	r2, [r0, #16]
 80028ca:	009b      	lsls	r3, r3, #2
 80028cc:	58c3      	ldr	r3, [r0, r3]
 80028ce:	2a00      	cmp	r2, #0
 80028d0:	d150      	bne.n	8002974 <USBD_StdDevReq+0x284>
 80028d2:	466a      	mov	r2, sp
 80028d4:	1d96      	adds	r6, r2, #6
 80028d6:	6a9b      	ldr	r3, [r3, #40]	; 0x28
 80028d8:	0030      	movs	r0, r6
 80028da:	4798      	blx	r3
 80028dc:	2302      	movs	r3, #2
 80028de:	7043      	strb	r3, [r0, #1]
 80028e0:	e7c9      	b.n	8002876 <USBD_StdDevReq+0x186>
 80028e2:	466b      	mov	r3, sp
 80028e4:	1d9e      	adds	r6, r3, #6
 80028e6:	2384      	movs	r3, #132	; 0x84
 80028e8:	009b      	lsls	r3, r3, #2
 80028ea:	58e3      	ldr	r3, [r4, r3]
 80028ec:	0031      	movs	r1, r6
 80028ee:	681b      	ldr	r3, [r3, #0]
 80028f0:	7c00      	ldrb	r0, [r0, #16]
 80028f2:	4798      	blx	r3
 80028f4:	e7bf      	b.n	8002876 <USBD_StdDevReq+0x186>
 80028f6:	466b      	mov	r3, sp
 80028f8:	1d9e      	adds	r6, r3, #6
 80028fa:	2384      	movs	r3, #132	; 0x84
 80028fc:	009b      	lsls	r3, r3, #2
 80028fe:	58e3      	ldr	r3, [r4, r3]
 8002900:	0031      	movs	r1, r6
 8002902:	695b      	ldr	r3, [r3, #20]
 8002904:	7c00      	ldrb	r0, [r0, #16]
 8002906:	4798      	blx	r3
 8002908:	e7b5      	b.n	8002876 <USBD_StdDevReq+0x186>
 800290a:	466b      	mov	r3, sp
 800290c:	1d9e      	adds	r6, r3, #6
 800290e:	2384      	movs	r3, #132	; 0x84
 8002910:	009b      	lsls	r3, r3, #2
 8002912:	58e3      	ldr	r3, [r4, r3]
 8002914:	0031      	movs	r1, r6
 8002916:	691b      	ldr	r3, [r3, #16]
 8002918:	7c00      	ldrb	r0, [r0, #16]
 800291a:	4798      	blx	r3
 800291c:	e7ab      	b.n	8002876 <USBD_StdDevReq+0x186>
 800291e:	466b      	mov	r3, sp
 8002920:	1d9e      	adds	r6, r3, #6
 8002922:	2384      	movs	r3, #132	; 0x84
 8002924:	009b      	lsls	r3, r3, #2
 8002926:	58e3      	ldr	r3, [r4, r3]
 8002928:	0031      	movs	r1, r6
 800292a:	68db      	ldr	r3, [r3, #12]
 800292c:	7c00      	ldrb	r0, [r0, #16]
 800292e:	4798      	blx	r3
 8002930:	e7a1      	b.n	8002876 <USBD_StdDevReq+0x186>
 8002932:	466b      	mov	r3, sp
 8002934:	1d9e      	adds	r6, r3, #6
 8002936:	2384      	movs	r3, #132	; 0x84
 8002938:	009b      	lsls	r3, r3, #2
 800293a:	58e3      	ldr	r3, [r4, r3]
 800293c:	0031      	movs	r1, r6
 800293e:	689b      	ldr	r3, [r3, #8]
 8002940:	7c00      	ldrb	r0, [r0, #16]
 8002942:	4798      	blx	r3
 8002944:	e797      	b.n	8002876 <USBD_StdDevReq+0x186>
 8002946:	466b      	mov	r3, sp
 8002948:	1d9e      	adds	r6, r3, #6
 800294a:	2384      	movs	r3, #132	; 0x84
 800294c:	009b      	lsls	r3, r3, #2
 800294e:	58e3      	ldr	r3, [r4, r3]
 8002950:	0031      	movs	r1, r6
 8002952:	685b      	ldr	r3, [r3, #4]
 8002954:	7c00      	ldrb	r0, [r0, #16]
 8002956:	4798      	blx	r3
 8002958:	e78d      	b.n	8002876 <USBD_StdDevReq+0x186>
 800295a:	466b      	mov	r3, sp
 800295c:	1d9e      	adds	r6, r3, #6
 800295e:	2384      	movs	r3, #132	; 0x84
 8002960:	009b      	lsls	r3, r3, #2
 8002962:	58e3      	ldr	r3, [r4, r3]
 8002964:	0031      	movs	r1, r6
 8002966:	699b      	ldr	r3, [r3, #24]
 8002968:	7c00      	ldrb	r0, [r0, #16]
 800296a:	4798      	blx	r3
 800296c:	e783      	b.n	8002876 <USBD_StdDevReq+0x186>
 800296e:	2301      	movs	r3, #1
 8002970:	55a3      	strb	r3, [r4, r6]
 8002972:	e6d7      	b.n	8002724 <USBD_StdDevReq+0x34>
 8002974:	466a      	mov	r2, sp
 8002976:	1d96      	adds	r6, r2, #6
 8002978:	6adb      	ldr	r3, [r3, #44]	; 0x2c
 800297a:	0030      	movs	r0, r6
 800297c:	4798      	blx	r3
 800297e:	2302      	movs	r3, #2
 8002980:	7043      	strb	r3, [r0, #1]
 8002982:	e778      	b.n	8002876 <USBD_StdDevReq+0x186>
 8002984:	2202      	movs	r2, #2
 8002986:	5442      	strb	r2, [r0, r1]
 8002988:	6043      	str	r3, [r0, #4]
 800298a:	2100      	movs	r1, #0
 800298c:	f7ff fd8e 	bl	80024ac <USBD_ClrClassConfig>
 8002990:	0020      	movs	r0, r4
 8002992:	f000 f8fd 	bl	8002b90 <USBD_CtlSendStatus>
 8002996:	e6c5      	b.n	8002724 <USBD_StdDevReq+0x34>
 8002998:	08003334 	.word	0x08003334
 800299c:	20000130 	.word	0x20000130
 80029a0:	0800335c 	.word	0x0800335c
 80029a4:	0800337c 	.word	0x0800337c

080029a8 <USBD_StdItfReq>:
 80029a8:	23fe      	movs	r3, #254	; 0xfe
 80029aa:	b570      	push	{r4, r5, r6, lr}
 80029ac:	005b      	lsls	r3, r3, #1
 80029ae:	5cc3      	ldrb	r3, [r0, r3]
 80029b0:	0004      	movs	r4, r0
 80029b2:	000d      	movs	r5, r1
 80029b4:	2b03      	cmp	r3, #3
 80029b6:	d10c      	bne.n	80029d2 <USBD_StdItfReq+0x2a>
 80029b8:	790b      	ldrb	r3, [r1, #4]
 80029ba:	2b01      	cmp	r3, #1
 80029bc:	d809      	bhi.n	80029d2 <USBD_StdItfReq+0x2a>
 80029be:	2385      	movs	r3, #133	; 0x85
 80029c0:	009b      	lsls	r3, r3, #2
 80029c2:	58c3      	ldr	r3, [r0, r3]
 80029c4:	689b      	ldr	r3, [r3, #8]
 80029c6:	4798      	blx	r3
 80029c8:	88eb      	ldrh	r3, [r5, #6]
 80029ca:	2b00      	cmp	r3, #0
 80029cc:	d00a      	beq.n	80029e4 <USBD_StdItfReq+0x3c>
 80029ce:	2000      	movs	r0, #0
 80029d0:	bd70      	pop	{r4, r5, r6, pc}
 80029d2:	2180      	movs	r1, #128	; 0x80
 80029d4:	0020      	movs	r0, r4
 80029d6:	f000 faa1 	bl	8002f1c <USBD_LL_StallEP>
 80029da:	2100      	movs	r1, #0
 80029dc:	0020      	movs	r0, r4
 80029de:	f000 fa9d 	bl	8002f1c <USBD_LL_StallEP>
 80029e2:	e7f4      	b.n	80029ce <USBD_StdItfReq+0x26>
 80029e4:	0020      	movs	r0, r4
 80029e6:	f000 f8d3 	bl	8002b90 <USBD_CtlSendStatus>
 80029ea:	e7f0      	b.n	80029ce <USBD_StdItfReq+0x26>

080029ec <USBD_StdEPReq>:
 80029ec:	2360      	movs	r3, #96	; 0x60
 80029ee:	780a      	ldrb	r2, [r1, #0]
 80029f0:	b570      	push	{r4, r5, r6, lr}
 80029f2:	4013      	ands	r3, r2
 80029f4:	0005      	movs	r5, r0
 80029f6:	000c      	movs	r4, r1
 80029f8:	2b20      	cmp	r3, #32
 80029fa:	d106      	bne.n	8002a0a <USBD_StdEPReq+0x1e>
 80029fc:	33f5      	adds	r3, #245	; 0xf5
 80029fe:	33ff      	adds	r3, #255	; 0xff
 8002a00:	58c3      	ldr	r3, [r0, r3]
 8002a02:	689b      	ldr	r3, [r3, #8]
 8002a04:	4798      	blx	r3
 8002a06:	2000      	movs	r0, #0
 8002a08:	bd70      	pop	{r4, r5, r6, pc}
 8002a0a:	888a      	ldrh	r2, [r1, #4]
 8002a0c:	7863      	ldrb	r3, [r4, #1]
 8002a0e:	b2d1      	uxtb	r1, r2
 8002a10:	2b01      	cmp	r3, #1
 8002a12:	d034      	beq.n	8002a7e <USBD_StdEPReq+0x92>
 8002a14:	2b00      	cmp	r3, #0
 8002a16:	d017      	beq.n	8002a48 <USBD_StdEPReq+0x5c>
 8002a18:	2b03      	cmp	r3, #3
 8002a1a:	d1f4      	bne.n	8002a06 <USBD_StdEPReq+0x1a>
 8002a1c:	33fa      	adds	r3, #250	; 0xfa
 8002a1e:	33ff      	adds	r3, #255	; 0xff
 8002a20:	5cc3      	ldrb	r3, [r0, r3]
 8002a22:	2b02      	cmp	r3, #2
 8002a24:	d030      	beq.n	8002a88 <USBD_StdEPReq+0x9c>
 8002a26:	2b03      	cmp	r3, #3
 8002a28:	d13f      	bne.n	8002aaa <USBD_StdEPReq+0xbe>
 8002a2a:	8863      	ldrh	r3, [r4, #2]
 8002a2c:	2b00      	cmp	r3, #0
 8002a2e:	d103      	bne.n	8002a38 <USBD_StdEPReq+0x4c>
 8002a30:	064b      	lsls	r3, r1, #25
 8002a32:	d001      	beq.n	8002a38 <USBD_StdEPReq+0x4c>
 8002a34:	f000 fa72 	bl	8002f1c <USBD_LL_StallEP>
 8002a38:	2385      	movs	r3, #133	; 0x85
 8002a3a:	009b      	lsls	r3, r3, #2
 8002a3c:	58eb      	ldr	r3, [r5, r3]
 8002a3e:	0021      	movs	r1, r4
 8002a40:	689b      	ldr	r3, [r3, #8]
 8002a42:	0028      	movs	r0, r5
 8002a44:	4798      	blx	r3
 8002a46:	e02c      	b.n	8002aa2 <USBD_StdEPReq+0xb6>
 8002a48:	23fe      	movs	r3, #254	; 0xfe
 8002a4a:	005b      	lsls	r3, r3, #1
 8002a4c:	5cc3      	ldrb	r3, [r0, r3]
 8002a4e:	2b02      	cmp	r3, #2
 8002a50:	d01a      	beq.n	8002a88 <USBD_StdEPReq+0x9c>
 8002a52:	2b03      	cmp	r3, #3
 8002a54:	d129      	bne.n	8002aaa <USBD_StdEPReq+0xbe>
 8002a56:	247f      	movs	r4, #127	; 0x7f
 8002a58:	400c      	ands	r4, r1
 8002a5a:	0124      	lsls	r4, r4, #4
 8002a5c:	0613      	lsls	r3, r2, #24
 8002a5e:	d42d      	bmi.n	8002abc <USBD_StdEPReq+0xd0>
 8002a60:	3405      	adds	r4, #5
 8002a62:	34ff      	adds	r4, #255	; 0xff
 8002a64:	1904      	adds	r4, r0, r4
 8002a66:	0028      	movs	r0, r5
 8002a68:	f000 fa78 	bl	8002f5c <USBD_LL_IsStallEP>
 8002a6c:	1e43      	subs	r3, r0, #1
 8002a6e:	4198      	sbcs	r0, r3
 8002a70:	2202      	movs	r2, #2
 8002a72:	6020      	str	r0, [r4, #0]
 8002a74:	0021      	movs	r1, r4
 8002a76:	0028      	movs	r0, r5
 8002a78:	f000 f86c 	bl	8002b54 <USBD_CtlSendData>
 8002a7c:	e7c3      	b.n	8002a06 <USBD_StdEPReq+0x1a>
 8002a7e:	23fe      	movs	r3, #254	; 0xfe
 8002a80:	005b      	lsls	r3, r3, #1
 8002a82:	5cc3      	ldrb	r3, [r0, r3]
 8002a84:	2b02      	cmp	r3, #2
 8002a86:	d105      	bne.n	8002a94 <USBD_StdEPReq+0xa8>
 8002a88:	064b      	lsls	r3, r1, #25
 8002a8a:	d0bc      	beq.n	8002a06 <USBD_StdEPReq+0x1a>
 8002a8c:	0028      	movs	r0, r5
 8002a8e:	f000 fa45 	bl	8002f1c <USBD_LL_StallEP>
 8002a92:	e7b8      	b.n	8002a06 <USBD_StdEPReq+0x1a>
 8002a94:	2b03      	cmp	r3, #3
 8002a96:	d108      	bne.n	8002aaa <USBD_StdEPReq+0xbe>
 8002a98:	8863      	ldrh	r3, [r4, #2]
 8002a9a:	2b00      	cmp	r3, #0
 8002a9c:	d1b3      	bne.n	8002a06 <USBD_StdEPReq+0x1a>
 8002a9e:	064b      	lsls	r3, r1, #25
 8002aa0:	d10f      	bne.n	8002ac2 <USBD_StdEPReq+0xd6>
 8002aa2:	0028      	movs	r0, r5
 8002aa4:	f000 f874 	bl	8002b90 <USBD_CtlSendStatus>
 8002aa8:	e7ad      	b.n	8002a06 <USBD_StdEPReq+0x1a>
 8002aaa:	2180      	movs	r1, #128	; 0x80
 8002aac:	0028      	movs	r0, r5
 8002aae:	f000 fa35 	bl	8002f1c <USBD_LL_StallEP>
 8002ab2:	2100      	movs	r1, #0
 8002ab4:	0028      	movs	r0, r5
 8002ab6:	f000 fa31 	bl	8002f1c <USBD_LL_StallEP>
 8002aba:	e7a4      	b.n	8002a06 <USBD_StdEPReq+0x1a>
 8002abc:	3414      	adds	r4, #20
 8002abe:	1904      	adds	r4, r0, r4
 8002ac0:	e7d1      	b.n	8002a66 <USBD_StdEPReq+0x7a>
 8002ac2:	f000 fa3b 	bl	8002f3c <USBD_LL_ClearStallEP>
 8002ac6:	e7b7      	b.n	8002a38 <USBD_StdEPReq+0x4c>

08002ac8 <USBD_ParseSetupRequest>:
 8002ac8:	780b      	ldrb	r3, [r1, #0]
 8002aca:	7003      	strb	r3, [r0, #0]
 8002acc:	784b      	ldrb	r3, [r1, #1]
 8002ace:	7043      	strb	r3, [r0, #1]
 8002ad0:	78ca      	ldrb	r2, [r1, #3]
 8002ad2:	788b      	ldrb	r3, [r1, #2]
 8002ad4:	0212      	lsls	r2, r2, #8
 8002ad6:	189b      	adds	r3, r3, r2
 8002ad8:	8043      	strh	r3, [r0, #2]
 8002ada:	794a      	ldrb	r2, [r1, #5]
 8002adc:	790b      	ldrb	r3, [r1, #4]
 8002ade:	0212      	lsls	r2, r2, #8
 8002ae0:	189b      	adds	r3, r3, r2
 8002ae2:	8083      	strh	r3, [r0, #4]
 8002ae4:	79ca      	ldrb	r2, [r1, #7]
 8002ae6:	798b      	ldrb	r3, [r1, #6]
 8002ae8:	0212      	lsls	r2, r2, #8
 8002aea:	189b      	adds	r3, r3, r2
 8002aec:	80c3      	strh	r3, [r0, #6]
 8002aee:	4770      	bx	lr

08002af0 <USBD_CtlError>:
 8002af0:	b510      	push	{r4, lr}
 8002af2:	0004      	movs	r4, r0
 8002af4:	2180      	movs	r1, #128	; 0x80
 8002af6:	f000 fa11 	bl	8002f1c <USBD_LL_StallEP>
 8002afa:	2100      	movs	r1, #0
 8002afc:	0020      	movs	r0, r4
 8002afe:	f000 fa0d 	bl	8002f1c <USBD_LL_StallEP>
 8002b02:	bd10      	pop	{r4, pc}

08002b04 <USBD_GetString>:
 8002b04:	b530      	push	{r4, r5, lr}
 8002b06:	2800      	cmp	r0, #0
 8002b08:	d020      	beq.n	8002b4c <USBD_GetString+0x48>
 8002b0a:	7803      	ldrb	r3, [r0, #0]
 8002b0c:	2b00      	cmp	r3, #0
 8002b0e:	d01e      	beq.n	8002b4e <USBD_GetString+0x4a>
 8002b10:	0004      	movs	r4, r0
 8002b12:	2300      	movs	r3, #0
 8002b14:	3401      	adds	r4, #1
 8002b16:	7825      	ldrb	r5, [r4, #0]
 8002b18:	3301      	adds	r3, #1
 8002b1a:	b2db      	uxtb	r3, r3
 8002b1c:	2d00      	cmp	r5, #0
 8002b1e:	d1f9      	bne.n	8002b14 <USBD_GetString+0x10>
 8002b20:	005b      	lsls	r3, r3, #1
 8002b22:	3302      	adds	r3, #2
 8002b24:	b2dc      	uxtb	r4, r3
 8002b26:	8013      	strh	r3, [r2, #0]
 8002b28:	2303      	movs	r3, #3
 8002b2a:	700c      	strb	r4, [r1, #0]
 8002b2c:	704b      	strb	r3, [r1, #1]
 8002b2e:	7804      	ldrb	r4, [r0, #0]
 8002b30:	2c00      	cmp	r4, #0
 8002b32:	d00b      	beq.n	8002b4c <USBD_GetString+0x48>
 8002b34:	2500      	movs	r5, #0
 8002b36:	3b01      	subs	r3, #1
 8002b38:	1c5a      	adds	r2, r3, #1
 8002b3a:	b2d2      	uxtb	r2, r2
 8002b3c:	54cc      	strb	r4, [r1, r3]
 8002b3e:	3001      	adds	r0, #1
 8002b40:	548d      	strb	r5, [r1, r2]
 8002b42:	7804      	ldrb	r4, [r0, #0]
 8002b44:	3302      	adds	r3, #2
 8002b46:	b2db      	uxtb	r3, r3
 8002b48:	2c00      	cmp	r4, #0
 8002b4a:	d1f5      	bne.n	8002b38 <USBD_GetString+0x34>
 8002b4c:	bd30      	pop	{r4, r5, pc}
 8002b4e:	2402      	movs	r4, #2
 8002b50:	2302      	movs	r3, #2
 8002b52:	e7e8      	b.n	8002b26 <USBD_GetString+0x22>

08002b54 <USBD_CtlSendData>:
 8002b54:	0013      	movs	r3, r2
 8002b56:	22fa      	movs	r2, #250	; 0xfa
 8002b58:	b510      	push	{r4, lr}
 8002b5a:	2402      	movs	r4, #2
 8002b5c:	0052      	lsls	r2, r2, #1
 8002b5e:	5084      	str	r4, [r0, r2]
 8002b60:	000a      	movs	r2, r1
 8002b62:	6183      	str	r3, [r0, #24]
 8002b64:	61c3      	str	r3, [r0, #28]
 8002b66:	2100      	movs	r1, #0
 8002b68:	f000 fa20 	bl	8002fac <USBD_LL_Transmit>
 8002b6c:	2000      	movs	r0, #0
 8002b6e:	bd10      	pop	{r4, pc}

08002b70 <USBD_CtlContinueSendData>:
 8002b70:	b510      	push	{r4, lr}
 8002b72:	0013      	movs	r3, r2
 8002b74:	000a      	movs	r2, r1
 8002b76:	2100      	movs	r1, #0
 8002b78:	f000 fa18 	bl	8002fac <USBD_LL_Transmit>
 8002b7c:	2000      	movs	r0, #0
 8002b7e:	bd10      	pop	{r4, pc}

08002b80 <USBD_CtlContinueRx>:
 8002b80:	b510      	push	{r4, lr}
 8002b82:	0013      	movs	r3, r2
 8002b84:	000a      	movs	r2, r1
 8002b86:	2100      	movs	r1, #0
 8002b88:	f000 fa20 	bl	8002fcc <USBD_LL_PrepareReceive>
 8002b8c:	2000      	movs	r0, #0
 8002b8e:	bd10      	pop	{r4, pc}

08002b90 <USBD_CtlSendStatus>:
 8002b90:	23fa      	movs	r3, #250	; 0xfa
 8002b92:	2204      	movs	r2, #4
 8002b94:	b510      	push	{r4, lr}
 8002b96:	005b      	lsls	r3, r3, #1
 8002b98:	50c2      	str	r2, [r0, r3]
 8002b9a:	2100      	movs	r1, #0
 8002b9c:	2300      	movs	r3, #0
 8002b9e:	2200      	movs	r2, #0
 8002ba0:	f000 fa04 	bl	8002fac <USBD_LL_Transmit>
 8002ba4:	2000      	movs	r0, #0
 8002ba6:	bd10      	pop	{r4, pc}

08002ba8 <USBD_CtlReceiveStatus>:
 8002ba8:	23fa      	movs	r3, #250	; 0xfa
 8002baa:	2205      	movs	r2, #5
 8002bac:	b510      	push	{r4, lr}
 8002bae:	005b      	lsls	r3, r3, #1
 8002bb0:	50c2      	str	r2, [r0, r3]
 8002bb2:	2100      	movs	r1, #0
 8002bb4:	2300      	movs	r3, #0
 8002bb6:	2200      	movs	r2, #0
 8002bb8:	f000 fa08 	bl	8002fcc <USBD_LL_PrepareReceive>
 8002bbc:	2000      	movs	r0, #0
 8002bbe:	bd10      	pop	{r4, pc}

08002bc0 <SystemClock_Config>:
 8002bc0:	b510      	push	{r4, lr}
 8002bc2:	b098      	sub	sp, #96	; 0x60
 8002bc4:	2230      	movs	r2, #48	; 0x30
 8002bc6:	2100      	movs	r1, #0
 8002bc8:	a80c      	add	r0, sp, #48	; 0x30
 8002bca:	f000 fb8f 	bl	80032ec <memset>
 8002bce:	2210      	movs	r2, #16
 8002bd0:	2100      	movs	r1, #0
 8002bd2:	4668      	mov	r0, sp
 8002bd4:	f000 fb8a 	bl	80032ec <memset>
 8002bd8:	221c      	movs	r2, #28
 8002bda:	2100      	movs	r1, #0
 8002bdc:	a804      	add	r0, sp, #16
 8002bde:	f000 fb85 	bl	80032ec <memset>
 8002be2:	2320      	movs	r3, #32
 8002be4:	a80b      	add	r0, sp, #44	; 0x2c
 8002be6:	930b      	str	r3, [sp, #44]	; 0x2c
 8002be8:	3b1f      	subs	r3, #31
 8002bea:	9313      	str	r3, [sp, #76]	; 0x4c
 8002bec:	f7fe ff3e 	bl	8001a6c <HAL_RCC_OscConfig>
 8002bf0:	2307      	movs	r3, #7
 8002bf2:	2400      	movs	r4, #0
 8002bf4:	9300      	str	r3, [sp, #0]
 8002bf6:	2101      	movs	r1, #1
 8002bf8:	3b04      	subs	r3, #4
 8002bfa:	4668      	mov	r0, sp
 8002bfc:	9301      	str	r3, [sp, #4]
 8002bfe:	9402      	str	r4, [sp, #8]
 8002c00:	9403      	str	r4, [sp, #12]
 8002c02:	f7ff f9cb 	bl	8001f9c <HAL_RCC_ClockConfig>
 8002c06:	2380      	movs	r3, #128	; 0x80
 8002c08:	a804      	add	r0, sp, #16
 8002c0a:	029b      	lsls	r3, r3, #10
 8002c0c:	9304      	str	r3, [sp, #16]
 8002c0e:	940a      	str	r4, [sp, #40]	; 0x28
 8002c10:	f7ff face 	bl	80021b0 <HAL_RCCEx_PeriphCLKConfig>
 8002c14:	b018      	add	sp, #96	; 0x60
 8002c16:	bd10      	pop	{r4, pc}

08002c18 <main>:
 8002c18:	b500      	push	{lr}
 8002c1a:	b083      	sub	sp, #12
 8002c1c:	f7fd fb12 	bl	8000244 <HAL_Init>
 8002c20:	f7ff ffce 	bl	8002bc0 <SystemClock_Config>
 8002c24:	2080      	movs	r0, #128	; 0x80
 8002c26:	4a06      	ldr	r2, [pc, #24]	; (8002c40 <main+0x28>)
 8002c28:	0280      	lsls	r0, r0, #10
 8002c2a:	6951      	ldr	r1, [r2, #20]
 8002c2c:	4301      	orrs	r1, r0
 8002c2e:	6151      	str	r1, [r2, #20]
 8002c30:	6953      	ldr	r3, [r2, #20]
 8002c32:	4003      	ands	r3, r0
 8002c34:	9301      	str	r3, [sp, #4]
 8002c36:	9b01      	ldr	r3, [sp, #4]
 8002c38:	f000 f862 	bl	8002d00 <MX_USB_DEVICE_Init>
 8002c3c:	e7fe      	b.n	8002c3c <main+0x24>
 8002c3e:	46c0      	nop			; (mov r8, r8)
 8002c40:	40021000 	.word	0x40021000

08002c44 <Error_Handler>:
 8002c44:	4770      	bx	lr
 8002c46:	46c0      	nop			; (mov r8, r8)

08002c48 <HAL_MspInit>:
 8002c48:	2201      	movs	r2, #1
 8002c4a:	4b0a      	ldr	r3, [pc, #40]	; (8002c74 <HAL_MspInit+0x2c>)
 8002c4c:	b082      	sub	sp, #8
 8002c4e:	6999      	ldr	r1, [r3, #24]
 8002c50:	4311      	orrs	r1, r2
 8002c52:	6199      	str	r1, [r3, #24]
 8002c54:	6999      	ldr	r1, [r3, #24]
 8002c56:	400a      	ands	r2, r1
 8002c58:	2180      	movs	r1, #128	; 0x80
 8002c5a:	9200      	str	r2, [sp, #0]
 8002c5c:	9a00      	ldr	r2, [sp, #0]
 8002c5e:	69da      	ldr	r2, [r3, #28]
 8002c60:	0549      	lsls	r1, r1, #21
 8002c62:	430a      	orrs	r2, r1
 8002c64:	61da      	str	r2, [r3, #28]
 8002c66:	69db      	ldr	r3, [r3, #28]
 8002c68:	400b      	ands	r3, r1
 8002c6a:	9301      	str	r3, [sp, #4]
 8002c6c:	9b01      	ldr	r3, [sp, #4]
 8002c6e:	b002      	add	sp, #8
 8002c70:	4770      	bx	lr
 8002c72:	46c0      	nop			; (mov r8, r8)
 8002c74:	40021000 	.word	0x40021000

08002c78 <NMI_Handler>:
 8002c78:	4770      	bx	lr
 8002c7a:	46c0      	nop			; (mov r8, r8)

08002c7c <HardFault_Handler>:
 8002c7c:	e7fe      	b.n	8002c7c <HardFault_Handler>
 8002c7e:	46c0      	nop			; (mov r8, r8)

08002c80 <SVC_Handler>:
 8002c80:	4770      	bx	lr
 8002c82:	46c0      	nop			; (mov r8, r8)

08002c84 <PendSV_Handler>:
 8002c84:	4770      	bx	lr
 8002c86:	46c0      	nop			; (mov r8, r8)

08002c88 <SysTick_Handler>:
 8002c88:	b510      	push	{r4, lr}
 8002c8a:	f7fd faeb 	bl	8000264 <HAL_IncTick>
 8002c8e:	bd10      	pop	{r4, pc}

08002c90 <USB_IRQHandler>:
 8002c90:	b510      	push	{r4, lr}
 8002c92:	4802      	ldr	r0, [pc, #8]	; (8002c9c <USB_IRQHandler+0xc>)
 8002c94:	f7fe f996 	bl	8000fc4 <HAL_PCD_IRQHandler>
 8002c98:	bd10      	pop	{r4, pc}
 8002c9a:	46c0      	nop			; (mov r8, r8)
 8002c9c:	20000370 	.word	0x20000370

08002ca0 <SystemInit>:
 8002ca0:	2101      	movs	r1, #1
 8002ca2:	4b11      	ldr	r3, [pc, #68]	; (8002ce8 <SystemInit+0x48>)
 8002ca4:	4811      	ldr	r0, [pc, #68]	; (8002cec <SystemInit+0x4c>)
 8002ca6:	681a      	ldr	r2, [r3, #0]
 8002ca8:	430a      	orrs	r2, r1
 8002caa:	601a      	str	r2, [r3, #0]
 8002cac:	685a      	ldr	r2, [r3, #4]
 8002cae:	4002      	ands	r2, r0
 8002cb0:	605a      	str	r2, [r3, #4]
 8002cb2:	681a      	ldr	r2, [r3, #0]
 8002cb4:	480e      	ldr	r0, [pc, #56]	; (8002cf0 <SystemInit+0x50>)
 8002cb6:	4002      	ands	r2, r0
 8002cb8:	601a      	str	r2, [r3, #0]
 8002cba:	681a      	ldr	r2, [r3, #0]
 8002cbc:	480d      	ldr	r0, [pc, #52]	; (8002cf4 <SystemInit+0x54>)
 8002cbe:	4002      	ands	r2, r0
 8002cc0:	601a      	str	r2, [r3, #0]
 8002cc2:	685a      	ldr	r2, [r3, #4]
 8002cc4:	480c      	ldr	r0, [pc, #48]	; (8002cf8 <SystemInit+0x58>)
 8002cc6:	4002      	ands	r2, r0
 8002cc8:	200f      	movs	r0, #15
 8002cca:	605a      	str	r2, [r3, #4]
 8002ccc:	6ada      	ldr	r2, [r3, #44]	; 0x2c
 8002cce:	4382      	bics	r2, r0
 8002cd0:	62da      	str	r2, [r3, #44]	; 0x2c
 8002cd2:	6b1a      	ldr	r2, [r3, #48]	; 0x30
 8002cd4:	4809      	ldr	r0, [pc, #36]	; (8002cfc <SystemInit+0x5c>)
 8002cd6:	4002      	ands	r2, r0
 8002cd8:	631a      	str	r2, [r3, #48]	; 0x30
 8002cda:	6b5a      	ldr	r2, [r3, #52]	; 0x34
 8002cdc:	438a      	bics	r2, r1
 8002cde:	635a      	str	r2, [r3, #52]	; 0x34
 8002ce0:	2200      	movs	r2, #0
 8002ce2:	609a      	str	r2, [r3, #8]
 8002ce4:	4770      	bx	lr
 8002ce6:	46c0      	nop			; (mov r8, r8)
 8002ce8:	40021000 	.word	0x40021000
 8002cec:	08ffb80c 	.word	0x08ffb80c
 8002cf0:	fef6ffff 	.word	0xfef6ffff
 8002cf4:	fffbffff 	.word	0xfffbffff
 8002cf8:	ffc0ffff 	.word	0xffc0ffff
 8002cfc:	fffcfe2c 	.word	0xfffcfe2c

08002d00 <MX_USB_DEVICE_Init>:
 8002d00:	b510      	push	{r4, lr}
 8002d02:	4c0e      	ldr	r4, [pc, #56]	; (8002d3c <MX_USB_DEVICE_Init+0x3c>)
 8002d04:	2200      	movs	r2, #0
 8002d06:	490e      	ldr	r1, [pc, #56]	; (8002d40 <MX_USB_DEVICE_Init+0x40>)
 8002d08:	0020      	movs	r0, r4
 8002d0a:	f7ff fb97 	bl	800243c <USBD_Init>
 8002d0e:	2800      	cmp	r0, #0
 8002d10:	d110      	bne.n	8002d34 <MX_USB_DEVICE_Init+0x34>
 8002d12:	490c      	ldr	r1, [pc, #48]	; (8002d44 <MX_USB_DEVICE_Init+0x44>)
 8002d14:	0020      	movs	r0, r4
 8002d16:	f7ff fbab 	bl	8002470 <USBD_RegisterClass>
 8002d1a:	2800      	cmp	r0, #0
 8002d1c:	d107      	bne.n	8002d2e <MX_USB_DEVICE_Init+0x2e>
 8002d1e:	0020      	movs	r0, r4
 8002d20:	f7ff fbb0 	bl	8002484 <USBD_Start>
 8002d24:	2800      	cmp	r0, #0
 8002d26:	d001      	beq.n	8002d2c <MX_USB_DEVICE_Init+0x2c>
 8002d28:	f7ff ff8c 	bl	8002c44 <Error_Handler>
 8002d2c:	bd10      	pop	{r4, pc}
 8002d2e:	f7ff ff89 	bl	8002c44 <Error_Handler>
 8002d32:	e7f4      	b.n	8002d1e <MX_USB_DEVICE_Init+0x1e>
 8002d34:	f7ff ff86 	bl	8002c44 <Error_Handler>
 8002d38:	e7eb      	b.n	8002d12 <MX_USB_DEVICE_Init+0x12>
 8002d3a:	46c0      	nop			; (mov r8, r8)
 8002d3c:	2000014c 	.word	0x2000014c
 8002d40:	200000c4 	.word	0x200000c4
 8002d44:	2000004c 	.word	0x2000004c

08002d48 <HAL_PCD_MspInit>:
 8002d48:	b500      	push	{lr}
 8002d4a:	4b0d      	ldr	r3, [pc, #52]	; (8002d80 <HAL_PCD_MspInit+0x38>)
 8002d4c:	6802      	ldr	r2, [r0, #0]
 8002d4e:	b083      	sub	sp, #12
 8002d50:	429a      	cmp	r2, r3
 8002d52:	d001      	beq.n	8002d58 <HAL_PCD_MspInit+0x10>
 8002d54:	b003      	add	sp, #12
 8002d56:	bd00      	pop	{pc}
 8002d58:	2080      	movs	r0, #128	; 0x80
 8002d5a:	4a0a      	ldr	r2, [pc, #40]	; (8002d84 <HAL_PCD_MspInit+0x3c>)
 8002d5c:	0400      	lsls	r0, r0, #16
 8002d5e:	69d1      	ldr	r1, [r2, #28]
 8002d60:	4301      	orrs	r1, r0
 8002d62:	61d1      	str	r1, [r2, #28]
 8002d64:	69d3      	ldr	r3, [r2, #28]
 8002d66:	2100      	movs	r1, #0
 8002d68:	4003      	ands	r3, r0
 8002d6a:	9301      	str	r3, [sp, #4]
 8002d6c:	2200      	movs	r2, #0
 8002d6e:	201f      	movs	r0, #31
 8002d70:	9b01      	ldr	r3, [sp, #4]
 8002d72:	f7fd fa85 	bl	8000280 <HAL_NVIC_SetPriority>
 8002d76:	201f      	movs	r0, #31
 8002d78:	f7fd faae 	bl	80002d8 <HAL_NVIC_EnableIRQ>
 8002d7c:	e7ea      	b.n	8002d54 <HAL_PCD_MspInit+0xc>
 8002d7e:	46c0      	nop			; (mov r8, r8)
 8002d80:	40005c00 	.word	0x40005c00
 8002d84:	40021000 	.word	0x40021000

08002d88 <HAL_PCD_SetupStageCallback>:
 8002d88:	0001      	movs	r1, r0
 8002d8a:	2387      	movs	r3, #135	; 0x87
 8002d8c:	b510      	push	{r4, lr}
 8002d8e:	009b      	lsls	r3, r3, #2
 8002d90:	31ed      	adds	r1, #237	; 0xed
 8002d92:	31ff      	adds	r1, #255	; 0xff
 8002d94:	58c0      	ldr	r0, [r0, r3]
 8002d96:	f7ff fb91 	bl	80024bc <USBD_LL_SetupStage>
 8002d9a:	bd10      	pop	{r4, pc}

08002d9c <HAL_PCD_DataOutStageCallback>:
 8002d9c:	00cb      	lsls	r3, r1, #3
 8002d9e:	1a5b      	subs	r3, r3, r1
 8002da0:	009b      	lsls	r3, r3, #2
 8002da2:	18c3      	adds	r3, r0, r3
 8002da4:	3319      	adds	r3, #25
 8002da6:	33ff      	adds	r3, #255	; 0xff
 8002da8:	681a      	ldr	r2, [r3, #0]
 8002daa:	2387      	movs	r3, #135	; 0x87
 8002dac:	b510      	push	{r4, lr}
 8002dae:	009b      	lsls	r3, r3, #2
 8002db0:	58c0      	ldr	r0, [r0, r3]
 8002db2:	f7ff fbb7 	bl	8002524 <USBD_LL_DataOutStage>
 8002db6:	bd10      	pop	{r4, pc}

08002db8 <HAL_PCD_DataInStageCallback>:
 8002db8:	00cb      	lsls	r3, r1, #3
 8002dba:	1a5b      	subs	r3, r3, r1
 8002dbc:	009b      	lsls	r3, r3, #2
 8002dbe:	18c3      	adds	r3, r0, r3
 8002dc0:	6b9a      	ldr	r2, [r3, #56]	; 0x38
 8002dc2:	2387      	movs	r3, #135	; 0x87
 8002dc4:	b510      	push	{r4, lr}
 8002dc6:	009b      	lsls	r3, r3, #2
 8002dc8:	58c0      	ldr	r0, [r0, r3]
 8002dca:	f7ff fbe7 	bl	800259c <USBD_LL_DataInStage>
 8002dce:	bd10      	pop	{r4, pc}

08002dd0 <HAL_PCD_SOFCallback>:
 8002dd0:	2387      	movs	r3, #135	; 0x87
 8002dd2:	b510      	push	{r4, lr}
 8002dd4:	009b      	lsls	r3, r3, #2
 8002dd6:	58c0      	ldr	r0, [r0, r3]
 8002dd8:	f7ff fc7a 	bl	80026d0 <USBD_LL_SOF>
 8002ddc:	bd10      	pop	{r4, pc}
 8002dde:	46c0      	nop			; (mov r8, r8)

08002de0 <HAL_PCD_ResetCallback>:
 8002de0:	6883      	ldr	r3, [r0, #8]
 8002de2:	b570      	push	{r4, r5, r6, lr}
 8002de4:	0004      	movs	r4, r0
 8002de6:	2b02      	cmp	r3, #2
 8002de8:	d001      	beq.n	8002dee <HAL_PCD_ResetCallback+0xe>
 8002dea:	f7ff ff2b 	bl	8002c44 <Error_Handler>
 8002dee:	2587      	movs	r5, #135	; 0x87
 8002df0:	00ad      	lsls	r5, r5, #2
 8002df2:	2101      	movs	r1, #1
 8002df4:	5960      	ldr	r0, [r4, r5]
 8002df6:	f7ff fc53 	bl	80026a0 <USBD_LL_SetSpeed>
 8002dfa:	5960      	ldr	r0, [r4, r5]
 8002dfc:	f7ff fc2c 	bl	8002658 <USBD_LL_Reset>
 8002e00:	bd70      	pop	{r4, r5, r6, pc}
 8002e02:	46c0      	nop			; (mov r8, r8)

08002e04 <HAL_PCD_SuspendCallback>:
 8002e04:	2387      	movs	r3, #135	; 0x87
 8002e06:	b510      	push	{r4, lr}
 8002e08:	0004      	movs	r4, r0
 8002e0a:	009b      	lsls	r3, r3, #2
 8002e0c:	58c0      	ldr	r0, [r0, r3]
 8002e0e:	f7ff fc4b 	bl	80026a8 <USBD_LL_Suspend>
 8002e12:	69a3      	ldr	r3, [r4, #24]
 8002e14:	2b00      	cmp	r3, #0
 8002e16:	d004      	beq.n	8002e22 <HAL_PCD_SuspendCallback+0x1e>
 8002e18:	2106      	movs	r1, #6
 8002e1a:	4a02      	ldr	r2, [pc, #8]	; (8002e24 <HAL_PCD_SuspendCallback+0x20>)
 8002e1c:	6913      	ldr	r3, [r2, #16]
 8002e1e:	430b      	orrs	r3, r1
 8002e20:	6113      	str	r3, [r2, #16]
 8002e22:	bd10      	pop	{r4, pc}
 8002e24:	e000ed00 	.word	0xe000ed00

08002e28 <HAL_PCD_ResumeCallback>:
 8002e28:	6983      	ldr	r3, [r0, #24]
 8002e2a:	b510      	push	{r4, lr}
 8002e2c:	0004      	movs	r4, r0
 8002e2e:	2b00      	cmp	r3, #0
 8002e30:	d006      	beq.n	8002e40 <HAL_PCD_ResumeCallback+0x18>
 8002e32:	2106      	movs	r1, #6
 8002e34:	4a05      	ldr	r2, [pc, #20]	; (8002e4c <HAL_PCD_ResumeCallback+0x24>)
 8002e36:	6913      	ldr	r3, [r2, #16]
 8002e38:	438b      	bics	r3, r1
 8002e3a:	6113      	str	r3, [r2, #16]
 8002e3c:	f7ff fec0 	bl	8002bc0 <SystemClock_Config>
 8002e40:	2387      	movs	r3, #135	; 0x87
 8002e42:	009b      	lsls	r3, r3, #2
 8002e44:	58e0      	ldr	r0, [r4, r3]
 8002e46:	f7ff fc3b 	bl	80026c0 <USBD_LL_Resume>
 8002e4a:	bd10      	pop	{r4, pc}
 8002e4c:	e000ed00 	.word	0xe000ed00

08002e50 <USBD_LL_Init>:
 8002e50:	2387      	movs	r3, #135	; 0x87
 8002e52:	b570      	push	{r4, r5, r6, lr}
 8002e54:	0004      	movs	r4, r0
 8002e56:	4816      	ldr	r0, [pc, #88]	; (8002eb0 <USBD_LL_Init+0x60>)
 8002e58:	009b      	lsls	r3, r3, #2
 8002e5a:	50c4      	str	r4, [r0, r3]
 8002e5c:	3304      	adds	r3, #4
 8002e5e:	50e0      	str	r0, [r4, r3]
 8002e60:	4b14      	ldr	r3, [pc, #80]	; (8002eb4 <USBD_LL_Init+0x64>)
 8002e62:	6003      	str	r3, [r0, #0]
 8002e64:	2308      	movs	r3, #8
 8002e66:	6043      	str	r3, [r0, #4]
 8002e68:	3b06      	subs	r3, #6
 8002e6a:	6083      	str	r3, [r0, #8]
 8002e6c:	6103      	str	r3, [r0, #16]
 8002e6e:	2300      	movs	r3, #0
 8002e70:	6183      	str	r3, [r0, #24]
 8002e72:	61c3      	str	r3, [r0, #28]
 8002e74:	6203      	str	r3, [r0, #32]
 8002e76:	f7fd fa55 	bl	8000324 <HAL_PCD_Init>
 8002e7a:	2800      	cmp	r0, #0
 8002e7c:	d001      	beq.n	8002e82 <USBD_LL_Init+0x32>
 8002e7e:	f7ff fee1 	bl	8002c44 <Error_Handler>
 8002e82:	2588      	movs	r5, #136	; 0x88
 8002e84:	00ad      	lsls	r5, r5, #2
 8002e86:	5960      	ldr	r0, [r4, r5]
 8002e88:	2318      	movs	r3, #24
 8002e8a:	2200      	movs	r2, #0
 8002e8c:	2100      	movs	r1, #0
 8002e8e:	f7fe fdcd 	bl	8001a2c <HAL_PCDEx_PMAConfig>
 8002e92:	5960      	ldr	r0, [r4, r5]
 8002e94:	2358      	movs	r3, #88	; 0x58
 8002e96:	2200      	movs	r2, #0
 8002e98:	2180      	movs	r1, #128	; 0x80
 8002e9a:	f7fe fdc7 	bl	8001a2c <HAL_PCDEx_PMAConfig>
 8002e9e:	2380      	movs	r3, #128	; 0x80
 8002ea0:	5960      	ldr	r0, [r4, r5]
 8002ea2:	005b      	lsls	r3, r3, #1
 8002ea4:	2200      	movs	r2, #0
 8002ea6:	2181      	movs	r1, #129	; 0x81
 8002ea8:	f7fe fdc0 	bl	8001a2c <HAL_PCDEx_PMAConfig>
 8002eac:	2000      	movs	r0, #0
 8002eae:	bd70      	pop	{r4, r5, r6, pc}
 8002eb0:	20000370 	.word	0x20000370
 8002eb4:	40005c00 	.word	0x40005c00

08002eb8 <USBD_LL_Start>:
 8002eb8:	2388      	movs	r3, #136	; 0x88
 8002eba:	009b      	lsls	r3, r3, #2
 8002ebc:	b510      	push	{r4, lr}
 8002ebe:	58c0      	ldr	r0, [r0, r3]
 8002ec0:	f7fd fb50 	bl	8000564 <HAL_PCD_Start>
 8002ec4:	2803      	cmp	r0, #3
 8002ec6:	d802      	bhi.n	8002ece <USBD_LL_Start+0x16>
 8002ec8:	4b02      	ldr	r3, [pc, #8]	; (8002ed4 <USBD_LL_Start+0x1c>)
 8002eca:	5c18      	ldrb	r0, [r3, r0]
 8002ecc:	bd10      	pop	{r4, pc}
 8002ece:	2002      	movs	r0, #2
 8002ed0:	e7fc      	b.n	8002ecc <USBD_LL_Start+0x14>
 8002ed2:	46c0      	nop			; (mov r8, r8)
 8002ed4:	080033a4 	.word	0x080033a4

08002ed8 <USBD_LL_OpenEP>:
 8002ed8:	b510      	push	{r4, lr}
 8002eda:	0014      	movs	r4, r2
 8002edc:	001a      	movs	r2, r3
 8002ede:	2388      	movs	r3, #136	; 0x88
 8002ee0:	009b      	lsls	r3, r3, #2
 8002ee2:	58c0      	ldr	r0, [r0, r3]
 8002ee4:	0023      	movs	r3, r4
 8002ee6:	f7fd fb61 	bl	80005ac <HAL_PCD_EP_Open>
 8002eea:	2803      	cmp	r0, #3
 8002eec:	d802      	bhi.n	8002ef4 <USBD_LL_OpenEP+0x1c>
 8002eee:	4b02      	ldr	r3, [pc, #8]	; (8002ef8 <USBD_LL_OpenEP+0x20>)
 8002ef0:	5c18      	ldrb	r0, [r3, r0]
 8002ef2:	bd10      	pop	{r4, pc}
 8002ef4:	2002      	movs	r0, #2
 8002ef6:	e7fc      	b.n	8002ef2 <USBD_LL_OpenEP+0x1a>
 8002ef8:	080033a4 	.word	0x080033a4

08002efc <USBD_LL_CloseEP>:
 8002efc:	2388      	movs	r3, #136	; 0x88
 8002efe:	009b      	lsls	r3, r3, #2
 8002f00:	b510      	push	{r4, lr}
 8002f02:	58c0      	ldr	r0, [r0, r3]
 8002f04:	f7fd fce0 	bl	80008c8 <HAL_PCD_EP_Close>
 8002f08:	2803      	cmp	r0, #3
 8002f0a:	d802      	bhi.n	8002f12 <USBD_LL_CloseEP+0x16>
 8002f0c:	4b02      	ldr	r3, [pc, #8]	; (8002f18 <USBD_LL_CloseEP+0x1c>)
 8002f0e:	5c18      	ldrb	r0, [r3, r0]
 8002f10:	bd10      	pop	{r4, pc}
 8002f12:	2002      	movs	r0, #2
 8002f14:	e7fc      	b.n	8002f10 <USBD_LL_CloseEP+0x14>
 8002f16:	46c0      	nop			; (mov r8, r8)
 8002f18:	080033a4 	.word	0x080033a4

08002f1c <USBD_LL_StallEP>:
 8002f1c:	2388      	movs	r3, #136	; 0x88
 8002f1e:	009b      	lsls	r3, r3, #2
 8002f20:	b510      	push	{r4, lr}
 8002f22:	58c0      	ldr	r0, [r0, r3]
 8002f24:	f7fe fcbe 	bl	80018a4 <HAL_PCD_EP_SetStall>
 8002f28:	2803      	cmp	r0, #3
 8002f2a:	d802      	bhi.n	8002f32 <USBD_LL_StallEP+0x16>
 8002f2c:	4b02      	ldr	r3, [pc, #8]	; (8002f38 <USBD_LL_StallEP+0x1c>)
 8002f2e:	5c18      	ldrb	r0, [r3, r0]
 8002f30:	bd10      	pop	{r4, pc}
 8002f32:	2002      	movs	r0, #2
 8002f34:	e7fc      	b.n	8002f30 <USBD_LL_StallEP+0x14>
 8002f36:	46c0      	nop			; (mov r8, r8)
 8002f38:	080033a4 	.word	0x080033a4

08002f3c <USBD_LL_ClearStallEP>:
 8002f3c:	2388      	movs	r3, #136	; 0x88
 8002f3e:	009b      	lsls	r3, r3, #2
 8002f40:	b510      	push	{r4, lr}
 8002f42:	58c0      	ldr	r0, [r0, r3]
 8002f44:	f7fe fd0c 	bl	8001960 <HAL_PCD_EP_ClrStall>
 8002f48:	2803      	cmp	r0, #3
 8002f4a:	d802      	bhi.n	8002f52 <USBD_LL_ClearStallEP+0x16>
 8002f4c:	4b02      	ldr	r3, [pc, #8]	; (8002f58 <USBD_LL_ClearStallEP+0x1c>)
 8002f4e:	5c18      	ldrb	r0, [r3, r0]
 8002f50:	bd10      	pop	{r4, pc}
 8002f52:	2002      	movs	r0, #2
 8002f54:	e7fc      	b.n	8002f50 <USBD_LL_ClearStallEP+0x14>
 8002f56:	46c0      	nop			; (mov r8, r8)
 8002f58:	080033a4 	.word	0x080033a4

08002f5c <USBD_LL_IsStallEP>:
 8002f5c:	2388      	movs	r3, #136	; 0x88
 8002f5e:	b24a      	sxtb	r2, r1
 8002f60:	009b      	lsls	r3, r3, #2
 8002f62:	58c3      	ldr	r3, [r0, r3]
 8002f64:	2a00      	cmp	r2, #0
 8002f66:	db07      	blt.n	8002f78 <USBD_LL_IsStallEP+0x1c>
 8002f68:	00ca      	lsls	r2, r1, #3
 8002f6a:	1a51      	subs	r1, r2, r1
 8002f6c:	0089      	lsls	r1, r1, #2
 8002f6e:	185b      	adds	r3, r3, r1
 8002f70:	330b      	adds	r3, #11
 8002f72:	33ff      	adds	r3, #255	; 0xff
 8002f74:	7818      	ldrb	r0, [r3, #0]
 8002f76:	4770      	bx	lr
 8002f78:	227f      	movs	r2, #127	; 0x7f
 8002f7a:	4011      	ands	r1, r2
 8002f7c:	00ca      	lsls	r2, r1, #3
 8002f7e:	1a51      	subs	r1, r2, r1
 8002f80:	0089      	lsls	r1, r1, #2
 8002f82:	185b      	adds	r3, r3, r1
 8002f84:	332a      	adds	r3, #42	; 0x2a
 8002f86:	7818      	ldrb	r0, [r3, #0]
 8002f88:	e7f5      	b.n	8002f76 <USBD_LL_IsStallEP+0x1a>
 8002f8a:	46c0      	nop			; (mov r8, r8)

08002f8c <USBD_LL_SetUSBAddress>:
 8002f8c:	2388      	movs	r3, #136	; 0x88
 8002f8e:	009b      	lsls	r3, r3, #2
 8002f90:	b510      	push	{r4, lr}
 8002f92:	58c0      	ldr	r0, [r0, r3]
 8002f94:	f7fd faf0 	bl	8000578 <HAL_PCD_SetAddress>
 8002f98:	2803      	cmp	r0, #3
 8002f9a:	d802      	bhi.n	8002fa2 <USBD_LL_SetUSBAddress+0x16>
 8002f9c:	4b02      	ldr	r3, [pc, #8]	; (8002fa8 <USBD_LL_SetUSBAddress+0x1c>)
 8002f9e:	5c18      	ldrb	r0, [r3, r0]
 8002fa0:	bd10      	pop	{r4, pc}
 8002fa2:	2002      	movs	r0, #2
 8002fa4:	e7fc      	b.n	8002fa0 <USBD_LL_SetUSBAddress+0x14>
 8002fa6:	46c0      	nop			; (mov r8, r8)
 8002fa8:	080033a4 	.word	0x080033a4

08002fac <USBD_LL_Transmit>:
 8002fac:	b510      	push	{r4, lr}
 8002fae:	2488      	movs	r4, #136	; 0x88
 8002fb0:	00a4      	lsls	r4, r4, #2
 8002fb2:	5900      	ldr	r0, [r0, r4]
 8002fb4:	f7fd fe7c 	bl	8000cb0 <HAL_PCD_EP_Transmit>
 8002fb8:	2803      	cmp	r0, #3
 8002fba:	d802      	bhi.n	8002fc2 <USBD_LL_Transmit+0x16>
 8002fbc:	4b02      	ldr	r3, [pc, #8]	; (8002fc8 <USBD_LL_Transmit+0x1c>)
 8002fbe:	5c18      	ldrb	r0, [r3, r0]
 8002fc0:	bd10      	pop	{r4, pc}
 8002fc2:	2002      	movs	r0, #2
 8002fc4:	e7fc      	b.n	8002fc0 <USBD_LL_Transmit+0x14>
 8002fc6:	46c0      	nop			; (mov r8, r8)
 8002fc8:	080033a4 	.word	0x080033a4

08002fcc <USBD_LL_PrepareReceive>:
 8002fcc:	b510      	push	{r4, lr}
 8002fce:	2488      	movs	r4, #136	; 0x88
 8002fd0:	00a4      	lsls	r4, r4, #2
 8002fd2:	5900      	ldr	r0, [r0, r4]
 8002fd4:	f7fd fd4c 	bl	8000a70 <HAL_PCD_EP_Receive>
 8002fd8:	2803      	cmp	r0, #3
 8002fda:	d802      	bhi.n	8002fe2 <USBD_LL_PrepareReceive+0x16>
 8002fdc:	4b02      	ldr	r3, [pc, #8]	; (8002fe8 <USBD_LL_PrepareReceive+0x1c>)
 8002fde:	5c18      	ldrb	r0, [r3, r0]
 8002fe0:	bd10      	pop	{r4, pc}
 8002fe2:	2002      	movs	r0, #2
 8002fe4:	e7fc      	b.n	8002fe0 <USBD_LL_PrepareReceive+0x14>
 8002fe6:	46c0      	nop			; (mov r8, r8)
 8002fe8:	080033a4 	.word	0x080033a4

08002fec <USBD_static_malloc>:
 8002fec:	4800      	ldr	r0, [pc, #0]	; (8002ff0 <USBD_static_malloc+0x4>)
 8002fee:	4770      	bx	lr
 8002ff0:	20000134 	.word	0x20000134

08002ff4 <USBD_static_free>:
 8002ff4:	4770      	bx	lr
 8002ff6:	46c0      	nop			; (mov r8, r8)

08002ff8 <USBD_FS_DeviceDescriptor>:
 8002ff8:	2312      	movs	r3, #18
 8002ffa:	4801      	ldr	r0, [pc, #4]	; (8003000 <USBD_FS_DeviceDescriptor+0x8>)
 8002ffc:	800b      	strh	r3, [r1, #0]
 8002ffe:	4770      	bx	lr
 8003000:	200000e0 	.word	0x200000e0

08003004 <USBD_FS_LangIDStrDescriptor>:
 8003004:	2304      	movs	r3, #4
 8003006:	4801      	ldr	r0, [pc, #4]	; (800300c <USBD_FS_LangIDStrDescriptor+0x8>)
 8003008:	800b      	strh	r3, [r1, #0]
 800300a:	4770      	bx	lr
 800300c:	200000f4 	.word	0x200000f4

08003010 <USBD_FS_ManufacturerStrDescriptor>:
 8003010:	b510      	push	{r4, lr}
 8003012:	4c04      	ldr	r4, [pc, #16]	; (8003024 <USBD_FS_ManufacturerStrDescriptor+0x14>)
 8003014:	000a      	movs	r2, r1
 8003016:	4804      	ldr	r0, [pc, #16]	; (8003028 <USBD_FS_ManufacturerStrDescriptor+0x18>)
 8003018:	0021      	movs	r1, r4
 800301a:	f7ff fd73 	bl	8002b04 <USBD_GetString>
 800301e:	0020      	movs	r0, r4
 8003020:	bd10      	pop	{r4, pc}
 8003022:	46c0      	nop			; (mov r8, r8)
 8003024:	20000590 	.word	0x20000590
 8003028:	080033c4 	.word	0x080033c4

0800302c <USBD_FS_ProductStrDescriptor>:
 800302c:	b510      	push	{r4, lr}
 800302e:	4c04      	ldr	r4, [pc, #16]	; (8003040 <USBD_FS_ProductStrDescriptor+0x14>)
 8003030:	000a      	movs	r2, r1
 8003032:	4804      	ldr	r0, [pc, #16]	; (8003044 <USBD_FS_ProductStrDescriptor+0x18>)
 8003034:	0021      	movs	r1, r4
 8003036:	f7ff fd65 	bl	8002b04 <USBD_GetString>
 800303a:	0020      	movs	r0, r4
 800303c:	bd10      	pop	{r4, pc}
 800303e:	46c0      	nop			; (mov r8, r8)
 8003040:	20000590 	.word	0x20000590
 8003044:	080033d8 	.word	0x080033d8

08003048 <USBD_FS_ConfigStrDescriptor>:
 8003048:	b510      	push	{r4, lr}
 800304a:	4c04      	ldr	r4, [pc, #16]	; (800305c <USBD_FS_ConfigStrDescriptor+0x14>)
 800304c:	000a      	movs	r2, r1
 800304e:	4804      	ldr	r0, [pc, #16]	; (8003060 <USBD_FS_ConfigStrDescriptor+0x18>)
 8003050:	0021      	movs	r1, r4
 8003052:	f7ff fd57 	bl	8002b04 <USBD_GetString>
 8003056:	0020      	movs	r0, r4
 8003058:	bd10      	pop	{r4, pc}
 800305a:	46c0      	nop			; (mov r8, r8)
 800305c:	20000590 	.word	0x20000590
 8003060:	080033a8 	.word	0x080033a8

08003064 <USBD_FS_InterfaceStrDescriptor>:
 8003064:	b510      	push	{r4, lr}
 8003066:	4c04      	ldr	r4, [pc, #16]	; (8003078 <USBD_FS_InterfaceStrDescriptor+0x14>)
 8003068:	000a      	movs	r2, r1
 800306a:	4804      	ldr	r0, [pc, #16]	; (800307c <USBD_FS_InterfaceStrDescriptor+0x18>)
 800306c:	0021      	movs	r1, r4
 800306e:	f7ff fd49 	bl	8002b04 <USBD_GetString>
 8003072:	0020      	movs	r0, r4
 8003074:	bd10      	pop	{r4, pc}
 8003076:	46c0      	nop			; (mov r8, r8)
 8003078:	20000590 	.word	0x20000590
 800307c:	080033b4 	.word	0x080033b4

08003080 <USBD_FS_SerialStrDescriptor>:
 8003080:	231a      	movs	r3, #26
 8003082:	b510      	push	{r4, lr}
 8003084:	800b      	strh	r3, [r1, #0]
 8003086:	4b6e      	ldr	r3, [pc, #440]	; (8003240 <USBD_FS_SerialStrDescriptor+0x1c0>)
 8003088:	681a      	ldr	r2, [r3, #0]
 800308a:	4b6e      	ldr	r3, [pc, #440]	; (8003244 <USBD_FS_SerialStrDescriptor+0x1c4>)
 800308c:	681b      	ldr	r3, [r3, #0]
 800308e:	18d3      	adds	r3, r2, r3
 8003090:	2b00      	cmp	r3, #0
 8003092:	d101      	bne.n	8003098 <USBD_FS_SerialStrDescriptor+0x18>
 8003094:	486c      	ldr	r0, [pc, #432]	; (8003248 <USBD_FS_SerialStrDescriptor+0x1c8>)
 8003096:	bd10      	pop	{r4, pc}
 8003098:	4a6c      	ldr	r2, [pc, #432]	; (800324c <USBD_FS_SerialStrDescriptor+0x1cc>)
 800309a:	0f18      	lsrs	r0, r3, #28
 800309c:	6812      	ldr	r2, [r2, #0]
 800309e:	b2c1      	uxtb	r1, r0
 80030a0:	2809      	cmp	r0, #9
 80030a2:	d967      	bls.n	8003174 <USBD_FS_SerialStrDescriptor+0xf4>
 80030a4:	4868      	ldr	r0, [pc, #416]	; (8003248 <USBD_FS_SerialStrDescriptor+0x1c8>)
 80030a6:	3137      	adds	r1, #55	; 0x37
 80030a8:	7081      	strb	r1, [r0, #2]
 80030aa:	2100      	movs	r1, #0
 80030ac:	70c1      	strb	r1, [r0, #3]
 80030ae:	0119      	lsls	r1, r3, #4
 80030b0:	0f09      	lsrs	r1, r1, #28
 80030b2:	b2cc      	uxtb	r4, r1
 80030b4:	2909      	cmp	r1, #9
 80030b6:	d867      	bhi.n	8003188 <USBD_FS_SerialStrDescriptor+0x108>
 80030b8:	2100      	movs	r1, #0
 80030ba:	7141      	strb	r1, [r0, #5]
 80030bc:	0219      	lsls	r1, r3, #8
 80030be:	3430      	adds	r4, #48	; 0x30
 80030c0:	0f09      	lsrs	r1, r1, #28
 80030c2:	7104      	strb	r4, [r0, #4]
 80030c4:	b2cc      	uxtb	r4, r1
 80030c6:	2909      	cmp	r1, #9
 80030c8:	d867      	bhi.n	800319a <USBD_FS_SerialStrDescriptor+0x11a>
 80030ca:	2100      	movs	r1, #0
 80030cc:	71c1      	strb	r1, [r0, #7]
 80030ce:	0319      	lsls	r1, r3, #12
 80030d0:	3430      	adds	r4, #48	; 0x30
 80030d2:	0f09      	lsrs	r1, r1, #28
 80030d4:	7184      	strb	r4, [r0, #6]
 80030d6:	b2cc      	uxtb	r4, r1
 80030d8:	2909      	cmp	r1, #9
 80030da:	d867      	bhi.n	80031ac <USBD_FS_SerialStrDescriptor+0x12c>
 80030dc:	2100      	movs	r1, #0
 80030de:	7241      	strb	r1, [r0, #9]
 80030e0:	0419      	lsls	r1, r3, #16
 80030e2:	3430      	adds	r4, #48	; 0x30
 80030e4:	0f09      	lsrs	r1, r1, #28
 80030e6:	7204      	strb	r4, [r0, #8]
 80030e8:	b2cc      	uxtb	r4, r1
 80030ea:	2909      	cmp	r1, #9
 80030ec:	d867      	bhi.n	80031be <USBD_FS_SerialStrDescriptor+0x13e>
 80030ee:	2100      	movs	r1, #0
 80030f0:	72c1      	strb	r1, [r0, #11]
 80030f2:	0519      	lsls	r1, r3, #20
 80030f4:	3430      	adds	r4, #48	; 0x30
 80030f6:	0f09      	lsrs	r1, r1, #28
 80030f8:	7284      	strb	r4, [r0, #10]
 80030fa:	b2cc      	uxtb	r4, r1
 80030fc:	2909      	cmp	r1, #9
 80030fe:	d867      	bhi.n	80031d0 <USBD_FS_SerialStrDescriptor+0x150>
 8003100:	2100      	movs	r1, #0
 8003102:	7341      	strb	r1, [r0, #13]
 8003104:	0619      	lsls	r1, r3, #24
 8003106:	3430      	adds	r4, #48	; 0x30
 8003108:	0f09      	lsrs	r1, r1, #28
 800310a:	7304      	strb	r4, [r0, #12]
 800310c:	b2cc      	uxtb	r4, r1
 800310e:	2909      	cmp	r1, #9
 8003110:	d867      	bhi.n	80031e2 <USBD_FS_SerialStrDescriptor+0x162>
 8003112:	2100      	movs	r1, #0
 8003114:	73c1      	strb	r1, [r0, #15]
 8003116:	310f      	adds	r1, #15
 8003118:	3430      	adds	r4, #48	; 0x30
 800311a:	400b      	ands	r3, r1
 800311c:	7384      	strb	r4, [r0, #14]
 800311e:	b2d9      	uxtb	r1, r3
 8003120:	2b09      	cmp	r3, #9
 8003122:	d867      	bhi.n	80031f4 <USBD_FS_SerialStrDescriptor+0x174>
 8003124:	2300      	movs	r3, #0
 8003126:	3130      	adds	r1, #48	; 0x30
 8003128:	7401      	strb	r1, [r0, #16]
 800312a:	0f11      	lsrs	r1, r2, #28
 800312c:	7443      	strb	r3, [r0, #17]
 800312e:	b2cb      	uxtb	r3, r1
 8003130:	2909      	cmp	r1, #9
 8003132:	d867      	bhi.n	8003204 <USBD_FS_SerialStrDescriptor+0x184>
 8003134:	3330      	adds	r3, #48	; 0x30
 8003136:	7483      	strb	r3, [r0, #18]
 8003138:	2300      	movs	r3, #0
 800313a:	74c3      	strb	r3, [r0, #19]
 800313c:	0113      	lsls	r3, r2, #4
 800313e:	0f1b      	lsrs	r3, r3, #28
 8003140:	b2d9      	uxtb	r1, r3
 8003142:	2b09      	cmp	r3, #9
 8003144:	d867      	bhi.n	8003216 <USBD_FS_SerialStrDescriptor+0x196>
 8003146:	2300      	movs	r3, #0
 8003148:	7543      	strb	r3, [r0, #21]
 800314a:	0213      	lsls	r3, r2, #8
 800314c:	3130      	adds	r1, #48	; 0x30
 800314e:	0f1b      	lsrs	r3, r3, #28
 8003150:	7501      	strb	r1, [r0, #20]
 8003152:	b2d9      	uxtb	r1, r3
 8003154:	2b09      	cmp	r3, #9
 8003156:	d867      	bhi.n	8003228 <USBD_FS_SerialStrDescriptor+0x1a8>
 8003158:	2300      	movs	r3, #0
 800315a:	75c3      	strb	r3, [r0, #23]
 800315c:	0313      	lsls	r3, r2, #12
 800315e:	3130      	adds	r1, #48	; 0x30
 8003160:	0f1b      	lsrs	r3, r3, #28
 8003162:	7581      	strb	r1, [r0, #22]
 8003164:	b2da      	uxtb	r2, r3
 8003166:	2b09      	cmp	r3, #9
 8003168:	d867      	bhi.n	800323a <USBD_FS_SerialStrDescriptor+0x1ba>
 800316a:	3230      	adds	r2, #48	; 0x30
 800316c:	7602      	strb	r2, [r0, #24]
 800316e:	2300      	movs	r3, #0
 8003170:	7643      	strb	r3, [r0, #25]
 8003172:	e790      	b.n	8003096 <USBD_FS_SerialStrDescriptor+0x16>
 8003174:	4834      	ldr	r0, [pc, #208]	; (8003248 <USBD_FS_SerialStrDescriptor+0x1c8>)
 8003176:	3130      	adds	r1, #48	; 0x30
 8003178:	7081      	strb	r1, [r0, #2]
 800317a:	2100      	movs	r1, #0
 800317c:	70c1      	strb	r1, [r0, #3]
 800317e:	0119      	lsls	r1, r3, #4
 8003180:	0f09      	lsrs	r1, r1, #28
 8003182:	b2cc      	uxtb	r4, r1
 8003184:	2909      	cmp	r1, #9
 8003186:	d997      	bls.n	80030b8 <USBD_FS_SerialStrDescriptor+0x38>
 8003188:	2100      	movs	r1, #0
 800318a:	7141      	strb	r1, [r0, #5]
 800318c:	0219      	lsls	r1, r3, #8
 800318e:	3437      	adds	r4, #55	; 0x37
 8003190:	0f09      	lsrs	r1, r1, #28
 8003192:	7104      	strb	r4, [r0, #4]
 8003194:	b2cc      	uxtb	r4, r1
 8003196:	2909      	cmp	r1, #9
 8003198:	d997      	bls.n	80030ca <USBD_FS_SerialStrDescriptor+0x4a>
 800319a:	2100      	movs	r1, #0
 800319c:	71c1      	strb	r1, [r0, #7]
 800319e:	0319      	lsls	r1, r3, #12
 80031a0:	3437      	adds	r4, #55	; 0x37
 80031a2:	0f09      	lsrs	r1, r1, #28
 80031a4:	7184      	strb	r4, [r0, #6]
 80031a6:	b2cc      	uxtb	r4, r1
 80031a8:	2909      	cmp	r1, #9
 80031aa:	d997      	bls.n	80030dc <USBD_FS_SerialStrDescriptor+0x5c>
 80031ac:	2100      	movs	r1, #0
 80031ae:	7241      	strb	r1, [r0, #9]
 80031b0:	0419      	lsls	r1, r3, #16
 80031b2:	3437      	adds	r4, #55	; 0x37
 80031b4:	0f09      	lsrs	r1, r1, #28
 80031b6:	7204      	strb	r4, [r0, #8]
 80031b8:	b2cc      	uxtb	r4, r1
 80031ba:	2909      	cmp	r1, #9
 80031bc:	d997      	bls.n	80030ee <USBD_FS_SerialStrDescriptor+0x6e>
 80031be:	2100      	movs	r1, #0
 80031c0:	72c1      	strb	r1, [r0, #11]
 80031c2:	0519      	lsls	r1, r3, #20
 80031c4:	3437      	adds	r4, #55	; 0x37
 80031c6:	0f09      	lsrs	r1, r1, #28
 80031c8:	7284      	strb	r4, [r0, #10]
 80031ca:	b2cc      	uxtb	r4, r1
 80031cc:	2909      	cmp	r1, #9
 80031ce:	d997      	bls.n	8003100 <USBD_FS_SerialStrDescriptor+0x80>
 80031d0:	2100      	movs	r1, #0
 80031d2:	7341      	strb	r1, [r0, #13]
 80031d4:	0619      	lsls	r1, r3, #24
 80031d6:	3437      	adds	r4, #55	; 0x37
 80031d8:	0f09      	lsrs	r1, r1, #28
 80031da:	7304      	strb	r4, [r0, #12]
 80031dc:	b2cc      	uxtb	r4, r1
 80031de:	2909      	cmp	r1, #9
 80031e0:	d997      	bls.n	8003112 <USBD_FS_SerialStrDescriptor+0x92>
 80031e2:	2100      	movs	r1, #0
 80031e4:	73c1      	strb	r1, [r0, #15]
 80031e6:	310f      	adds	r1, #15
 80031e8:	3437      	adds	r4, #55	; 0x37
 80031ea:	400b      	ands	r3, r1
 80031ec:	7384      	strb	r4, [r0, #14]
 80031ee:	b2d9      	uxtb	r1, r3
 80031f0:	2b09      	cmp	r3, #9
 80031f2:	d997      	bls.n	8003124 <USBD_FS_SerialStrDescriptor+0xa4>
 80031f4:	2300      	movs	r3, #0
 80031f6:	3137      	adds	r1, #55	; 0x37
 80031f8:	7401      	strb	r1, [r0, #16]
 80031fa:	0f11      	lsrs	r1, r2, #28
 80031fc:	7443      	strb	r3, [r0, #17]
 80031fe:	b2cb      	uxtb	r3, r1
 8003200:	2909      	cmp	r1, #9
 8003202:	d997      	bls.n	8003134 <USBD_FS_SerialStrDescriptor+0xb4>
 8003204:	3337      	adds	r3, #55	; 0x37
 8003206:	7483      	strb	r3, [r0, #18]
 8003208:	2300      	movs	r3, #0
 800320a:	74c3      	strb	r3, [r0, #19]
 800320c:	0113      	lsls	r3, r2, #4
 800320e:	0f1b      	lsrs	r3, r3, #28
 8003210:	b2d9      	uxtb	r1, r3
 8003212:	2b09      	cmp	r3, #9
 8003214:	d997      	bls.n	8003146 <USBD_FS_SerialStrDescriptor+0xc6>
 8003216:	2300      	movs	r3, #0
 8003218:	7543      	strb	r3, [r0, #21]
 800321a:	0213      	lsls	r3, r2, #8
 800321c:	3137      	adds	r1, #55	; 0x37
 800321e:	0f1b      	lsrs	r3, r3, #28
 8003220:	7501      	strb	r1, [r0, #20]
 8003222:	b2d9      	uxtb	r1, r3
 8003224:	2b09      	cmp	r3, #9
 8003226:	d997      	bls.n	8003158 <USBD_FS_SerialStrDescriptor+0xd8>
 8003228:	2300      	movs	r3, #0
 800322a:	75c3      	strb	r3, [r0, #23]
 800322c:	0313      	lsls	r3, r2, #12
 800322e:	3137      	adds	r1, #55	; 0x37
 8003230:	0f1b      	lsrs	r3, r3, #28
 8003232:	7581      	strb	r1, [r0, #22]
 8003234:	b2da      	uxtb	r2, r3
 8003236:	2b09      	cmp	r3, #9
 8003238:	d997      	bls.n	800316a <USBD_FS_SerialStrDescriptor+0xea>
 800323a:	3237      	adds	r2, #55	; 0x37
 800323c:	7602      	strb	r2, [r0, #24]
 800323e:	e796      	b.n	800316e <USBD_FS_SerialStrDescriptor+0xee>
 8003240:	1ffff7ac 	.word	0x1ffff7ac
 8003244:	1ffff7b4 	.word	0x1ffff7b4
 8003248:	200000f8 	.word	0x200000f8
 800324c:	1ffff7b0 	.word	0x1ffff7b0

08003250 <Reset_Handler>:
 8003250:	480d      	ldr	r0, [pc, #52]	; (8003288 <LoopForever+0x2>)
 8003252:	4685      	mov	sp, r0
 8003254:	480d      	ldr	r0, [pc, #52]	; (800328c <LoopForever+0x6>)
 8003256:	490e      	ldr	r1, [pc, #56]	; (8003290 <LoopForever+0xa>)
 8003258:	4a0e      	ldr	r2, [pc, #56]	; (8003294 <LoopForever+0xe>)
 800325a:	2300      	movs	r3, #0
 800325c:	e002      	b.n	8003264 <LoopCopyDataInit>

0800325e <CopyDataInit>:
 800325e:	58d4      	ldr	r4, [r2, r3]
 8003260:	50c4      	str	r4, [r0, r3]
 8003262:	3304      	adds	r3, #4

08003264 <LoopCopyDataInit>:
 8003264:	18c4      	adds	r4, r0, r3
 8003266:	428c      	cmp	r4, r1
 8003268:	d3f9      	bcc.n	800325e <CopyDataInit>
 800326a:	4a0b      	ldr	r2, [pc, #44]	; (8003298 <LoopForever+0x12>)
 800326c:	4c0b      	ldr	r4, [pc, #44]	; (800329c <LoopForever+0x16>)
 800326e:	2300      	movs	r3, #0
 8003270:	e001      	b.n	8003276 <LoopFillZerobss>

08003272 <FillZerobss>:
 8003272:	6013      	str	r3, [r2, #0]
 8003274:	3204      	adds	r2, #4

08003276 <LoopFillZerobss>:
 8003276:	42a2      	cmp	r2, r4
 8003278:	d3fb      	bcc.n	8003272 <FillZerobss>
 800327a:	f7ff fd11 	bl	8002ca0 <SystemInit>
 800327e:	f000 f811 	bl	80032a4 <__libc_init_array>
 8003282:	f7ff fcc9 	bl	8002c18 <main>

08003286 <LoopForever>:
 8003286:	e7fe      	b.n	8003286 <LoopForever>
 8003288:	20004000 	.word	0x20004000
 800328c:	20000000 	.word	0x20000000
 8003290:	20000114 	.word	0x20000114
 8003294:	080033f8 	.word	0x080033f8
 8003298:	20000114 	.word	0x20000114
 800329c:	20000790 	.word	0x20000790

080032a0 <ADC1_COMP_IRQHandler>:
 80032a0:	e7fe      	b.n	80032a0 <ADC1_COMP_IRQHandler>
	...

080032a4 <__libc_init_array>:
 80032a4:	b570      	push	{r4, r5, r6, lr}
 80032a6:	2600      	movs	r6, #0
 80032a8:	4d0c      	ldr	r5, [pc, #48]	; (80032dc <__libc_init_array+0x38>)
 80032aa:	4c0d      	ldr	r4, [pc, #52]	; (80032e0 <__libc_init_array+0x3c>)
 80032ac:	1b64      	subs	r4, r4, r5
 80032ae:	10a4      	asrs	r4, r4, #2
 80032b0:	42a6      	cmp	r6, r4
 80032b2:	d109      	bne.n	80032c8 <__libc_init_array+0x24>
 80032b4:	2600      	movs	r6, #0
 80032b6:	f000 f821 	bl	80032fc <_init>
 80032ba:	4d0a      	ldr	r5, [pc, #40]	; (80032e4 <__libc_init_array+0x40>)
 80032bc:	4c0a      	ldr	r4, [pc, #40]	; (80032e8 <__libc_init_array+0x44>)
 80032be:	1b64      	subs	r4, r4, r5
 80032c0:	10a4      	asrs	r4, r4, #2
 80032c2:	42a6      	cmp	r6, r4
 80032c4:	d105      	bne.n	80032d2 <__libc_init_array+0x2e>
 80032c6:	bd70      	pop	{r4, r5, r6, pc}
 80032c8:	00b3      	lsls	r3, r6, #2
 80032ca:	58eb      	ldr	r3, [r5, r3]
 80032cc:	4798      	blx	r3
 80032ce:	3601      	adds	r6, #1
 80032d0:	e7ee      	b.n	80032b0 <__libc_init_array+0xc>
 80032d2:	00b3      	lsls	r3, r6, #2
 80032d4:	58eb      	ldr	r3, [r5, r3]
 80032d6:	4798      	blx	r3
 80032d8:	3601      	adds	r6, #1
 80032da:	e7f2      	b.n	80032c2 <__libc_init_array+0x1e>
 80032dc:	080033f0 	.word	0x080033f0
 80032e0:	080033f0 	.word	0x080033f0
 80032e4:	080033f0 	.word	0x080033f0
 80032e8:	080033f4 	.word	0x080033f4

080032ec <memset>:
 80032ec:	0003      	movs	r3, r0
 80032ee:	1812      	adds	r2, r2, r0
 80032f0:	4293      	cmp	r3, r2
 80032f2:	d100      	bne.n	80032f6 <memset+0xa>
 80032f4:	4770      	bx	lr
 80032f6:	7019      	strb	r1, [r3, #0]
 80032f8:	3301      	adds	r3, #1
 80032fa:	e7f9      	b.n	80032f0 <memset+0x4>

080032fc <_init>:
 80032fc:	b5f8      	push	{r3, r4, r5, r6, r7, lr}
 80032fe:	46c0      	nop			; (mov r8, r8)
 8003300:	bcf8      	pop	{r3, r4, r5, r6, r7}
 8003302:	bc08      	pop	{r3}
 8003304:	469e      	mov	lr, r3
 8003306:	4770      	bx	lr

08003308 <_fini>:
 8003308:	b5f8      	push	{r3, r4, r5, r6, r7, lr}
 800330a:	46c0      	nop			; (mov r8, r8)
 800330c:	bcf8      	pop	{r3, r4, r5, r6, r7}
 800330e:	bc08      	pop	{r3}
 8003310:	469e      	mov	lr, r3
 8003312:	4770      	bx	lr
